C51 COMPILER V9.60.7.0   PLATFORM                                                          05/26/2026 10:51:57 PAGE 1   


C51 COMPILER V9.60.7.0, COMPILATION OF MODULE PLATFORM
OBJECT MODULE PLACED IN .\build\Target 1\.obj\PLATFORM.o
COMPILER INVOKED BY: E:\51\C51\BIN\C51.exe .\PLATFORM.c OMF2 TABS(4) CODE NOCOND SYMBOLS INCDIR(../C51/INC/Atmel;../C51/
                    -INC) DEFINE(__UVISION_VERSION=526) OPTIMIZE(8,SPEED) SMALL ROM(LARGE) PRINT(.\build\Target 1\.obj\PLATFORM.lst) OBJECT(.
                    -\build\Target 1\.obj\PLATFORM.o)

line level    source

   1          #include "platform.h"
   2          
   3          volatile unsigned long System_Tick = 0;
   4          unsigned long now ;
   5          
   6          //==================== AT24C0C Ķ«ŠÕżćń╗ōµ×äõĮōÕ░üĶŻģ ====================//
   7          typedef struct 
   8          {
   9              unsigned long        IIC_Wait_Tick;
  10              unsigned char        IIC_Rx_Buffer;   
  11                unsigned char      *IIC_Rx_Adress;  
  12                unsigned char      *IIC_Rx_Re_Adress;   
  13                unsigned char       *IIC_Rx_Data  ;
  14              unsigned char        IIC_Rx_Buffer_Long; // Ķ»╗ķĢ┐Õ║”
  15              unsigned char        IIC_Bit_Cnt;
  16              unsigned char        ack;
  17              unsigned char       IIC_Read_Complete ;
  18              Aht20_I2C_Read_State_Typedef   Read_State;
  19              Aht20_I2C_Read_Event_Typedef   Read_Event;
  20          } AHT20_TypeDef;
  21          
  22          static AHT20_TypeDef AHT20_READ = {
  23              0
  24          };
  25          
  26          
  27          //=================================================================
  28          
  29          #define IIC_DELAY_5US 5
  30          #define IIC_DELAY_3US 3
  31          
  32          sbit IO_SCL = P1^0;
  33          sbit IO_SDA = P1^1;
  34          sbit IO_BEEP     = P1^5;
  35          
  36          
  37          void GPIO_Set(Pin_ID_TypeDef pin, unsigned char state)
  38          {
  39   1          switch (pin)
  40   1          {
  41   2              case PIN_SCL:
  42   2                  IO_SCL = state;
  43   2                  break;
  44   2              case PIN_SDA:
  45   2                  IO_SDA = state;
  46   2                  break;
  47   2              case PIN_BEEP:
  48   2                  IO_BEEP = state;
  49   2                  break;
  50   2              default:
  51   2                  break;
  52   2          }
  53   1      }
C51 COMPILER V9.60.7.0   PLATFORM                                                          05/26/2026 10:51:57 PAGE 2   

  54          
  55          unsigned char GPIO_Get(Pin_ID_TypeDef pin)
  56          {
  57   1          switch (pin)
  58   1          {
  59   2              case PIN_SDA:
  60   2                  return IO_SDA;
  61   2               case PIN_BEEP:
  62   2                   return IO_BEEP;
  63   2              case PIN_SCL:
  64   2                  return IO_SCL;
  65   2              default:
  66   2                  return 0;
  67   2          }
  68   1      }
  69          
  70          void Timer0_SysTick_Init(void)
  71          {
  72   1          TMOD |= 0x01;   // Timer0 µ©ĪÕ╝Å1 16õĮŹ
  73   1          // 1us ķćŹĶŻģÕłØÕĆ╝
  74   1          TH0 = 0xFF;
  75   1          TL0 = 0xFF;
  76   1      
  77   1          ET0 = 1;    // õĮ┐ĶāĮÕ«ÜµŚČÕÖ©0õĖŁµ¢Ł
  78   1          TR0 = 1;    // ÕÉ»ÕŖ©Õ«ÜµŚČÕÖ©
  79   1          EA  = 1;    // Õ╝ĆµĆ╗õĖŁµ¢Ł
  80   1      }
  81          
  82          void Timer0_ISR(void) interrupt 1
  83          {
  84   1          // ķćŹĶŻģ1usÕłØÕĆ╝
  85   1          TH0 = 0xFF;
  86   1          TL0 = 0xFF;
  87   1          System_Tick++;  // Õģ©Õ▒ĆµŚČķŚ┤+1
  88   1      }
  89          
  90          unsigned long time_get_us(void)
  91          {
  92   1          return System_Tick;
  93   1      }
  94          
  95          // 12MHz µÖČµī»
  96          void delay_ms(unsigned int ms)
  97          {
  98   1          unsigned int i, j;
  99   1          for(i = 0; i < ms; i++)
 100   1              for(j = 0; j < 120; j++);
 101   1      }
 102          
 103          
 104          
 105          
 106          
 107          void Platform_UART_Init(void)
 108          {
 109   1          SCON = 0x50;    // 51õĖōÕ▒×
 110   1          TMOD |= 0x20;
 111   1          TH1 = 0xFD;
 112   1          TL1 = 0xFD;
 113   1          
 114   1          TR1 = 1;
 115   1              
C51 COMPILER V9.60.7.0   PLATFORM                                                          05/26/2026 10:51:57 PAGE 3   

 116   1          ES = 1;
 117   1          EA = 1;
 118   1      }
 119          
 120          void Platform_UART_Send_Str(unsigned char *str, unsigned char len)
 121          {
 122   1           while (len--) 
 123   1           {
 124   2              SBUF = *str++;
 125   2              while (!TI);
 126   2              TI = 0;
 127   2          }
 128   1      }
 129          
 130          void Platform_Aht20_Standard_IIC_Read_Address(unsigned char *adress,unsigned char *re_adress,unsigned char
             - *dat)
 131          {
 132   1          AHT20_READ.IIC_Rx_Adress = adress;
 133   1          AHT20_READ.IIC_Rx_Re_Adress = re_adress;
 134   1          AHT20_READ.IIC_Rx_Data = dat;
 135   1          AHT20_READ.Read_Event = READ_I2C_EVENT_START; // Ķ┐øÕģźĶĄĘÕ¦ŗµØĪõ╗ČķśČµ«Ą
 136   1          AHT20_READ.Read_State = READ_I2C_START_STEP1; // ĶĄĘÕ¦ŗµØĪõ╗ČńÜäń¼¼õĖĆµŁź
 137   1          AHT20_READ.IIC_Read_Complete = 0; 
 138   1          AHT20_READ.IIC_Bit_Cnt = 0;
 139   1          AHT20_READ.IIC_Rx_Buffer_Long = 0;
 140   1      }
 141          
 142          
 143          
 144          
 145          void Platform_Aht20_Standard_IIC_Read_Start(void)
 146          {
 147   1          now = time_get_us();
 148   1          switch(AHT20_READ.Read_State)
 149   1          {
 150   2              // ĶĄĘÕ¦ŗµØĪõ╗Č’╝ÜSCLÕÆīSDAķāĮõĖ║ķ½śńöĄÕ╣│
 151   2             case READ_I2C_START_STEP1 :
 152   2          GPIO_Set(PIN_SDA, 1);
 153   2          GPIO_Set(PIN_SCL, 1);
 154   2           AHT20_READ.IIC_Wait_Tick =now ;
 155   2           AHT20_READ.Read_State = READ_I2C_START_STEP2;
 156   2          break;
 157   2              // ĶĄĘÕ¦ŗµØĪõ╗Č’╝ÜńŁēÕŠģ5us’╝īSDAÕ£©SCLķ½śńöĄÕ╣│µ£¤ķŚ┤ńö▒ķ½śÕÅśõĮÄ
 158   2            case READ_I2C_START_STEP2 :
 159   2          if((now - AHT20_READ.IIC_Wait_Tick) >= IIC_DELAY_5US)
 160   2          {
 161   3              GPIO_Set(PIN_SDA, 0);
 162   3              AHT20_READ.IIC_Wait_Tick =now ;
 163   3              AHT20_READ.Read_State = READ_I2C_START_STEP3;
 164   3          }
 165   2          break;
 166   2         // ĶĄĘÕ¦ŗµØĪõ╗Č’╝Üńø┤µÄźµŖŖsclõĖ║1
 167   2            case READ_I2C_START_STEP3 :
 168   2          if((now - AHT20_READ.IIC_Wait_Tick) >= IIC_DELAY_5US)
 169   2          {
 170   3              GPIO_Set(PIN_SCL, 0);
 171   3              AHT20_READ.IIC_Wait_Tick =now ;
 172   3              AHT20_READ.Read_Event = READ_I2C_EVENT_ADDRESS; // Ķ┐øÕģźÕÅæķĆüÕ£░ÕØĆķśČµ«Ą
 173   3              AHT20_READ.Read_State = READ_I2C_SEND_ADDRESS_STEP1;
 174   3          }
 175   2          break;
 176   2      }
C51 COMPILER V9.60.7.0   PLATFORM                                                          05/26/2026 10:51:57 PAGE 4   

 177   1      }
 178          
 179          void Platform_Aht20_Standard_IIC_Read_Devidce_And_Word_Address(void)
 180          {   
 181   1          now = time_get_us();
 182   1          switch(AHT20_READ.Read_State)
 183   1          {
 184   2              //ńŁēÕŠģ3us’╝īµö╣ÕÅśsda
 185   2          case READ_I2C_SEND_ADDRESS_STEP1 :
 186   2          if((now - AHT20_READ.IIC_Wait_Tick) >= IIC_DELAY_5US)
 187   2          {
 188   3              AHT20_READ.IIC_Rx_Buffer = *(AHT20_READ.IIC_Rx_Adress); 
 189   3              AHT20_READ.IIC_Rx_Buffer <<= AHT20_READ.IIC_Bit_Cnt; 
 190   3              GPIO_Set(PIN_SDA, ((AHT20_READ.IIC_Rx_Buffer) & 0x80)); 
 191   3              now = time_get_us();
 192   3              AHT20_READ.IIC_Wait_Tick =now ;
 193   3              AHT20_READ.Read_State = READ_I2C_SEND_ADDRESS_STEP2;
 194   3          }
 195   2          break;
 196   2              //ńŁēÕŠģ3us’╝īµö╣ÕÅśscl
 197   2          case READ_I2C_SEND_ADDRESS_STEP2 :
 198   2          if((now - AHT20_READ.IIC_Wait_Tick) >= IIC_DELAY_3US)
 199   2          {
 200   3              GPIO_Set(PIN_SCL, 1);
 201   3              now = time_get_us();
 202   3              AHT20_READ.IIC_Wait_Tick =now ;
 203   3              AHT20_READ.Read_State = READ_I2C_SEND_ADDRESS_STEP3;
 204   3          }
 205   2          break;
 206   2              //õ┐Øµīüsclķ½śńöĄÕ╣│5us
 207   2          case READ_I2C_SEND_ADDRESS_STEP3 :
 208   2          if((now - AHT20_READ.IIC_Wait_Tick) >= IIC_DELAY_5US)
 209   2          {
 210   3              GPIO_Set(PIN_SCL, 0);
 211   3              AHT20_READ.Read_State = READ_I2C_SEND_ADDRESS_STEP4;
 212   3          }
 213   2          break;
 214   2             
 215   2          case READ_I2C_SEND_ADDRESS_STEP4 :
 216   2          AHT20_READ.IIC_Bit_Cnt++;
 217   2          if(AHT20_READ.IIC_Bit_Cnt == 8)
 218   2          {
 219   3              AHT20_READ.IIC_Bit_Cnt = 0;
 220   3              now = time_get_us();
 221   3              AHT20_READ.IIC_Wait_Tick =now ;
 222   3              AHT20_READ.Read_Event = READ_I2C_EVENT_RECEIVE_ACK; // Ķ┐øÕģźµÄźµöČACKķśČµ«Ą
 223   3              AHT20_READ.Read_State = READ_I2C_RECEIVE_ACK_STEP1;
 224   3          }
 225   2          else
 226   2          {
 227   3              now = time_get_us();
 228   3              AHT20_READ.IIC_Wait_Tick =now ;
 229   3              AHT20_READ.Read_State = READ_I2C_SEND_ADDRESS_STEP1; // Õø×Õł░µö╣ÕÅśSCLńÜäµŁźķ¬ż’╝īń╗¦ń╗ŁÕÅæķĆüõĖŗ
             -õĖĆõĮŹ
 230   3          }
 231   2          break;
 232   2      }
 233   1      }
 234          
 235          void Platform_Aht20_Standard_IIC_Read_Receive_Ack(void)
 236          {
 237   1          now = time_get_us();
C51 COMPILER V9.60.7.0   PLATFORM                                                          05/26/2026 10:51:57 PAGE 5   

 238   1          switch(AHT20_READ.Read_State)
 239   1          {
 240   2              //ńŁēÕŠģ3us’╝īķćŖµöŠsda’╝łĶŠōÕģź’╝ē
 241   2          case READ_I2C_RECEIVE_ACK_STEP1 :
 242   2          if((now - AHT20_READ.IIC_Wait_Tick) >= IIC_DELAY_3US)
 243   2          {
 244   3              GPIO_Set(PIN_SDA, 1); // ķćŖµöŠSDAń║┐’╝īÕćåÕżćµÄźµöČACK
 245   3              now = time_get_us();
 246   3              AHT20_READ.IIC_Wait_Tick =now ;
 247   3              AHT20_READ.Read_State = READ_I2C_RECEIVE_ACK_STEP2;
 248   3          }
 249   2          break;
 250   2              //ńŁēÕŠģ3us’╝īsclµŗēķ½ś
 251   2          case READ_I2C_RECEIVE_ACK_STEP2 :
 252   2          if((now - AHT20_READ.IIC_Wait_Tick) >= IIC_DELAY_3US)
 253   2          {
 254   3              GPIO_Set(PIN_SCL, 1); // µŗēķ½śSCLń║┐’╝īÕćåÕżćĶ»╗ÕÅ¢ACKõĮŹ
 255   3              now = time_get_us();
 256   3              AHT20_READ.IIC_Wait_Tick =now ;
 257   3              AHT20_READ.Read_State = READ_I2C_RECEIVE_ACK_STEP3;
 258   3          }
 259   2          break;
 260   2              //õ┐Øµīüsclķ½śńöĄÕ╣│5us’╝īĶ»╗ÕÅ¢ack
 261   2          case READ_I2C_RECEIVE_ACK_STEP3 :
 262   2          if((now - AHT20_READ.IIC_Wait_Tick) >= IIC_DELAY_5US)
 263   2          {
 264   3              AHT20_READ.IIC_Rx_Buffer_Long++;
 265   3              AHT20_READ.IIC_Bit_Cnt = 0; 
 266   3              AHT20_READ.ack = GPIO_Get(PIN_SDA); // Ķ»╗ÕÅ¢ACKõĮŹ
 267   3      
 268   3              GPIO_Set(PIN_SCL, 0); // µŗēõĮÄSCLń║┐’╝īń╗ōµØ¤ACKõĮŹńÜäµŚČķÆ¤Õæ©µ£¤
 269   3              now = time_get_us();
 270   3              AHT20_READ.IIC_Wait_Tick =now ;
 271   3      
 272   3              if(AHT20_READ.ack == 0)
 273   3              {
 274   4                  if (AHT20_READ.IIC_Rx_Buffer_Long < 4) //µ│©µäÅĶ┐ÖõĖ¬preµś»4
 275   4                  {
 276   5                      AHT20_READ.IIC_Rx_Adress++; // ń¦╗ÕŖ©Õł░õĖŗõĖĆõĖ¬Õ£░ÕØĆ
 277   5                      AHT20_READ.Read_Event = READ_I2C_EVENT_ADDRESS; // Ķ┐øÕģźķćŹÕżŹĶĄĘÕ¦ŗµØĪõ╗ČķśČµ«Ą
 278   5                      AHT20_READ.Read_State = READ_I2C_SEND_ADDRESS_STEP1; // ķćŹÕżŹĶĄĘÕ¦ŗµØĪõ╗ČńÜäń¼¼õĖĆµŁź
 279   5                  }
 280   4                  else
 281   4                  {
 282   5                      AHT20_READ.IIC_Rx_Buffer_Long = 0;
 283   5                  AHT20_READ.Read_Event = READ_I2C_EVENT_STOP; // Õü£µŁóķĆÜõ┐Ī
 284   5                  AHT20_READ.Read_State = READ_I2C_STOP_STEP1; // Ķ┐øÕģźÕü£µŁóµØĪõ╗ČńÜäń¼¼õĖĆµŁź
 285   5                  }
 286   4      
 287   4              }
 288   3              else
 289   3              {
 290   4                  // ACKµÄźµöČÕż▒Ķ┤ź’╝īÕÅ»õ╗źķĆēµŗ®ķćŹĶ»Ģµł¢Õü£µŁóķĆÜõ┐Ī
 291   4                  AHT20_READ.Read_Event = READ_I2C_EVENT_RE_STOP; // Õü£µŁóķĆÜõ┐Ī
 292   4                  AHT20_READ.Read_State = READ_I2C_RE_STOP_STEP1; // Ķ┐øÕģźÕü£µŁóµØĪõ╗ČńÜäń¼¼õĖĆ
 293   4              }
 294   3          }
 295   2          break;
 296   2      }
 297   1      }
 298          
 299          void Platform_Aht20_Standard_IIC_Read_Stop(void)
C51 COMPILER V9.60.7.0   PLATFORM                                                          05/26/2026 10:51:57 PAGE 6   

 300          {
 301   1          now = time_get_us();
 302   1          switch(AHT20_READ.Read_State)
 303   1          {
 304   2              //Õü£µŁóµØĪõ╗Č’╝ÜSCLõĖ║õĮÄńöĄÕ╣│’╝īSDAńö▒õĮÄÕÅśķ½ś
 305   2          case READ_I2C_STOP_STEP1 :
 306   2          if((now - AHT20_READ.IIC_Wait_Tick) >= IIC_DELAY_5US)
 307   2          {
 308   3              GPIO_Set(PIN_SDA, 0); // ńĪ«õ┐ØSDAń║┐õĖ║õĮÄńöĄÕ╣│
 309   3              GPIO_Set(PIN_SCL, 1); // µŗēķ½śSCLń║┐’╝īÕćåÕżćÕÅæķĆüÕü£µŁóµØĪõ╗Č
 310   3              now = time_get_us();
 311   3              AHT20_READ.IIC_Wait_Tick =now ;
 312   3              AHT20_READ.Read_State = READ_I2C_STOP_STEP2;
 313   3          }
 314   2          break;
 315   2              //ńŁēÕŠģ3us’╝īµö╣ÕÅśsda
 316   2          case READ_I2C_STOP_STEP2 :
 317   2          if((now - AHT20_READ.IIC_Wait_Tick) >= IIC_DELAY_3US)
 318   2          {
 319   3              GPIO_Set(PIN_SDA, 1); // Õ£©SCLķ½śńöĄÕ╣│µ£¤ķŚ┤Õ░åSDAń║┐µŗēķ½ś’╝īÕÅæķĆüÕü£µŁóµØĪõ╗Č
 320   3              now = time_get_us();
 321   3              AHT20_READ.IIC_Wait_Tick =now ;
 322   3              AHT20_READ.Read_State = READ_I2C_STOP_STEP3;
 323   3          }
 324   2          break;
 325   2              //ńŁēÕŠģ5us’╝īÕ«īµłÉÕü£µŁóµØĪõ╗Č
 326   2          case READ_I2C_STOP_STEP3 :
 327   2          if((now - AHT20_READ.IIC_Wait_Tick) >= IIC_DELAY_5US)
 328   2          {
 329   3               now = time_get_us();
 330   3              AHT20_READ.IIC_Wait_Tick =now ;
 331   3              AHT20_READ.Read_Event = READ_I2C_EVENT_WAIT; // Ķ┐öÕø×ń®║ķŚ▓ńŖČµĆü
 332   3              AHT20_READ.Read_State = READ_I2C_WAIT_STEP1; // ÕćåÕżćõĖŗõĖĆµ¼ĪķĆÜõ┐ĪńÜäĶĄĘÕ¦ŗµØĪõ╗Č
 333   3          }
 334   2          break;
 335   2      }
 336   1      }
 337          
 338          void Platform_Aht20_Standard_IIC_Read_Wait(void)
 339          {
 340   1          now = time_get_us();
 341   1          switch(AHT20_READ.Read_State)
 342   1          {
 343   2          case READ_I2C_WAIT_STEP1 :
 344   2          if((now - AHT20_READ.IIC_Wait_Tick) >=80000) // 80ms’╝īńĪ«õ┐ØAHT20µ£ēĶČ│Õż¤µŚČķŚ┤Õ«īµłÉµĄŗķćÅÕ╣ČÕćåÕżć
             -ÕźĮµĢ░µŹ«
 345   2          {
 346   3              AHT20_READ.Read_Event = READ_I2C_EVENT_RE_START; // Ķ┐öÕø×ń®║ķŚ▓ńŖČµĆü
 347   3              AHT20_READ.Read_State = READ_I2C_RE_START_STEP1; // ńŁēÕŠģõĖŗõĖĆµ¼ĪķĆÜõ┐ĪńÜäĶ¦”ÕÅæ
 348   3          }
 349   2          break;
 350   2      }
 351   1      }
 352          
 353          void Platform_Aht20_Standard_IIC_Read_Re_Start(void)
 354          {
 355   1          now = time_get_us();
 356   1          switch(AHT20_READ.Read_State)
 357   1          {
 358   2              //ķćŹÕżŹĶĄĘÕ¦ŗµØĪõ╗Č’╝ÜSCLÕÆīSDAķāĮõĖ║ķ½śńöĄÕ╣│
 359   2             case READ_I2C_RE_START_STEP1 :
 360   2          GPIO_Set(PIN_SDA, 1);
C51 COMPILER V9.60.7.0   PLATFORM                                                          05/26/2026 10:51:57 PAGE 7   

 361   2          GPIO_Set(PIN_SCL, 1);
 362   2           AHT20_READ.IIC_Wait_Tick =now ;
 363   2           AHT20_READ.Read_State = READ_I2C_RE_START_STEP2;
 364   2          break;
 365   2              //ķćŹÕżŹĶĄĘÕ¦ŗµØĪõ╗Č’╝ÜńŁēÕŠģ5us’╝īSDAÕ£©SCLķ½śńöĄÕ╣│µ£¤ķŚ┤ńö▒ķ½śÕÅśõĮÄ
 366   2            case READ_I2C_RE_START_STEP2 :
 367   2          if((now - AHT20_READ.IIC_Wait_Tick) >= IIC_DELAY_5US)
 368   2          {
 369   3              GPIO_Set(PIN_SDA, 0);
 370   3              AHT20_READ.IIC_Wait_Tick =now ;
 371   3              AHT20_READ.Read_State = READ_I2C_RE_START_STEP3;
 372   3          }
 373   2          break;
 374   2         //ķćŹÕżŹĶĄĘÕ¦ŗµØĪõ╗Č’╝Üńø┤µÄźµŖŖsclõĖ║0
 375   2            case READ_I2C_RE_START_STEP3 :
 376   2          if((now - AHT20_READ.IIC_Wait_Tick) >= IIC_DELAY_5US)
 377   2          {
 378   3              GPIO_Set(PIN_SCL, 0);
 379   3              AHT20_READ.IIC_Wait_Tick =now ;
 380   3              AHT20_READ.Read_Event = READ_I2C_EVENT_RE_ADDRESS; // Ķ┐øÕģźÕÅæķĆüÕ£░ÕØĆķśČµ«Ą
 381   3              AHT20_READ.Read_State = READ_I2C_RE_SEND_ADDRESS_STEP1;
 382   3          }
 383   2          break;
 384   2      }
 385   1      }
 386          
 387          void Platform_Aht20_Standard_IIC_Read_Re_Send_Address(void)
 388          {
 389   1          now = time_get_us();
 390   1          switch(AHT20_READ.Read_State)
 391   1          {
 392   2              //ńŁēÕŠģ3us’╝īµö╣ÕÅśsda
 393   2          case READ_I2C_RE_SEND_ADDRESS_STEP1 :
 394   2          if((now - AHT20_READ.IIC_Wait_Tick) >= IIC_DELAY_3US)
 395   2          {
 396   3              AHT20_READ.IIC_Rx_Buffer = *(AHT20_READ.IIC_Rx_Re_Adress); 
 397   3              AHT20_READ.IIC_Rx_Buffer <<= AHT20_READ.IIC_Bit_Cnt; 
 398   3              GPIO_Set(PIN_SDA, ((AHT20_READ.IIC_Rx_Buffer) & 0x80)); 
 399   3              now = time_get_us();
 400   3              AHT20_READ.IIC_Wait_Tick =now ;
 401   3              AHT20_READ.Read_State = READ_I2C_RE_SEND_ADDRESS_STEP2;
 402   3          }
 403   2          break;
 404   2              //ńŁēÕŠģ3us’╝īµö╣ÕÅśscl
 405   2          case READ_I2C_RE_SEND_ADDRESS_STEP2 :
 406   2          if((now - AHT20_READ.IIC_Wait_Tick) >= IIC_DELAY_3US)
 407   2          {
 408   3              GPIO_Set(PIN_SCL, 1);
 409   3              now = time_get_us();
 410   3              AHT20_READ.IIC_Wait_Tick =now ;
 411   3              AHT20_READ.Read_State = READ_I2C_RE_SEND_ADDRESS_STEP3;
 412   3          }
 413   2          break;
 414   2              //õ┐Øµīüsclķ½śńöĄÕ╣│5us
 415   2          case READ_I2C_RE_SEND_ADDRESS_STEP3 :
 416   2          if((now - AHT20_READ.IIC_Wait_Tick) >= IIC_DELAY_5US)
 417   2          {
 418   3              GPIO_Set(PIN_SCL, 0);
 419   3              AHT20_READ.Read_State = READ_I2C_RE_SEND_ADDRESS_STEP4;
 420   3          }
 421   2          break;
 422   2              
C51 COMPILER V9.60.7.0   PLATFORM                                                          05/26/2026 10:51:57 PAGE 8   

 423   2          case READ_I2C_RE_SEND_ADDRESS_STEP4 :
 424   2          AHT20_READ.IIC_Bit_Cnt++;
 425   2          if(AHT20_READ.IIC_Bit_Cnt == 8)
 426   2          {
 427   3              AHT20_READ.IIC_Bit_Cnt = 0;
 428   3              now = time_get_us();
 429   3              AHT20_READ.IIC_Wait_Tick =now ;
 430   3              AHT20_READ.Read_Event = READ_I2C_EVENT_RE_RECEIVE_ACK; // Ķ┐øÕģźµÄźµöČACKķśČµ«Ą
 431   3              AHT20_READ.Read_State = READ_I2C_RE_RECEIVE_ACK_STEP1;
 432   3          }
 433   2          else
 434   2          {
 435   3              now = time_get_us();
 436   3              AHT20_READ.IIC_Wait_Tick =now ;
 437   3              AHT20_READ.Read_State = READ_I2C_RE_SEND_ADDRESS_STEP1; // Õø×Õł░µö╣ÕÅśSCLńÜäµŁźķ¬ż’╝īń╗¦ń╗ŁÕÅæķĆü
             -õĖŗõĖĆõĮŹ
 438   3          }
 439   2          break;
 440   2      }
 441   1      }
 442          
 443          void Platform_Aht20_Standard_IIC_Read_Re_Receive_Ack(void)
 444          {
 445   1          now = time_get_us();
 446   1          switch(AHT20_READ.Read_State)
 447   1          {
 448   2              //ńŁēÕŠģ3us’╝īķćŖµöŠsda’╝łĶŠōÕģź’╝ē
 449   2          case READ_I2C_RE_RECEIVE_ACK_STEP1 :
 450   2          if((now - AHT20_READ.IIC_Wait_Tick) >= IIC_DELAY_3US)
 451   2          {
 452   3              GPIO_Set(PIN_SDA, 1); // ķćŖµöŠSDAń║┐’╝īÕćåÕżćµÄźµöČACK
 453   3              now = time_get_us();
 454   3              AHT20_READ.IIC_Wait_Tick =now ;
 455   3              AHT20_READ.Read_State = READ_I2C_RE_RECEIVE_ACK_STEP2;
 456   3          }
 457   2          break;
 458   2              //ńŁēÕŠģ3us’╝īsclµŗēķ½ś
 459   2          case READ_I2C_RE_RECEIVE_ACK_STEP2 :
 460   2          if((now - AHT20_READ.IIC_Wait_Tick) >= IIC_DELAY_3US)
 461   2          {
 462   3              GPIO_Set(PIN_SCL, 1); // µŗēķ½śSCLń║┐’╝īÕćåÕżćĶ»╗ÕÅ¢ACKõĮŹ
 463   3              now = time_get_us();
 464   3              AHT20_READ.IIC_Wait_Tick =now ;
 465   3              AHT20_READ.Read_State = READ_I2C_RE_RECEIVE_ACK_STEP3;
 466   3          }
 467   2          break;
 468   2              //õ┐Øµīüsclķ½śńöĄÕ╣│5us’╝īĶ»╗ÕÅ¢ack
 469   2          case READ_I2C_RE_RECEIVE_ACK_STEP3 :
 470   2          if((now - AHT20_READ.IIC_Wait_Tick) >= IIC_DELAY_5US)
 471   2          {
 472   3              AHT20_READ.ack = GPIO_Get(PIN_SDA); // Ķ»╗ÕÅ¢ACKõĮŹ
 473   3              AHT20_READ.IIC_Bit_Cnt = 0;
 474   3              GPIO_Set(PIN_SCL, 0); // µŗēõĮÄSCLń║┐’╝īń╗ōµØ¤ACKõĮŹńÜäµŚČķÆ¤Õæ©µ£¤
 475   3              now = time_get_us();
 476   3              AHT20_READ.IIC_Wait_Tick =now ;
 477   3              if(AHT20_READ.ack == 0)
 478   3              {
 479   4                  AHT20_READ.Read_Event = READ_I2C_EVENT_RECEIVE_DATA; // Ķ┐øÕģźµÄźµöČµĢ░µŹ«ķśČµ«Ą
 480   4                  AHT20_READ.Read_State = READ_I2C_RECEIVE_DATA_STEP0; // µÄźµöČµĢ░µŹ«ńÜäń¼¼õĖĆµŁź
 481   4              }
 482   3              else
 483   3              {
C51 COMPILER V9.60.7.0   PLATFORM                                                          05/26/2026 10:51:57 PAGE 9   

 484   4                  // ACKµÄźµöČÕż▒Ķ┤ź’╝īÕÅ»õ╗źķĆēµŗ®ķćŹĶ»Ģµł¢Õü£µŁóķĆÜõ┐Ī
 485   4                  AHT20_READ.Read_Event = READ_I2C_EVENT_RE_STOP; // Õü£µŁóķĆÜõ┐Ī
 486   4                  AHT20_READ.Read_State = READ_I2C_RE_STOP_STEP1; //
 487   4              }
 488   3          }
 489   2          break;
 490   2      }
 491   1      }
 492          
 493          
 494           void Platform_Aht20_Standard_IIC_Read_Receive_Data(void)
 495           {
 496   1          now = time_get_us();
 497   1          switch(AHT20_READ.Read_State)
 498   1          {
 499   2              //ńŁēÕŠģ3us’╝īÕćåÕżćµÄźµöČµĢ░µŹ«
 500   2              case READ_I2C_RECEIVE_DATA_STEP0 :
 501   2              AHT20_READ.IIC_Rx_Buffer =0 ;
 502   2              AHT20_READ.IIC_Bit_Cnt = 0 ;
 503   2              AHT20_READ.Read_State = READ_I2C_RECEIVE_DATA_STEP1;
 504   2              break;
 505   2      
 506   2          case READ_I2C_RECEIVE_DATA_STEP1 :
 507   2          if((now - AHT20_READ.IIC_Wait_Tick) >= IIC_DELAY_3US)
 508   2          {
 509   3              GPIO_Set(PIN_SDA, 1); // ķćŖµöŠSDAń║┐’╝īÕćåÕżćµÄźµöČµĢ░µŹ«
 510   3              now = time_get_us();
 511   3              AHT20_READ.IIC_Wait_Tick =now ;
 512   3              AHT20_READ.Read_State = READ_I2C_RECEIVE_DATA_STEP2;
 513   3          }
 514   2          break;
 515   2              //ńŁēÕŠģ3us’╝īsclµŗēķ½ś
 516   2          case READ_I2C_RECEIVE_DATA_STEP2 :
 517   2          if((now - AHT20_READ.IIC_Wait_Tick) >= IIC_DELAY_3US)
 518   2          {
 519   3              GPIO_Set(PIN_SCL, 1); // µŗēķ½śSCLń║┐’╝īÕćåÕżćĶ»╗ÕÅ¢µĢ░µŹ«õĮŹ
 520   3              AHT20_READ.IIC_Rx_Buffer <<= 1; // µĀ╣µŹ«ÕĮōÕēŹõĮŹµĢ░Ķ░āµĢ┤µĢ░µŹ«õĮŹńĮ«
 521   3              AHT20_READ.IIC_Rx_Buffer |= GPIO_Get(PIN_SDA); // Õ░åµÄźµöČÕł░ńÜäµĢ░µŹ«ÕåÖÕģźń╝ōÕå▓Õī║
 522   3              AHT20_READ.IIC_Bit_Cnt++;
 523   3              now = time_get_us();
 524   3              AHT20_READ.IIC_Wait_Tick =now ;
 525   3              AHT20_READ.Read_State = READ_I2C_RECEIVE_DATA_STEP3;
 526   3          }
 527   2          break;
 528   2              //õ┐Øµīüsclķ½śńöĄÕ╣│5us
 529   2          case READ_I2C_RECEIVE_DATA_STEP3 :
 530   2          if((now - AHT20_READ.IIC_Wait_Tick) >= IIC_DELAY_5US)
 531   2          {
 532   3              GPIO_Set(PIN_SCL, 0); // µŗēõĮÄSCLń║┐’╝īń╗ōµØ¤ÕĮōÕēŹµĢ░µŹ«õĮŹńÜäµŚČķÆ¤Õæ©µ£¤
 533   3              now = time_get_us();
 534   3              AHT20_READ.IIC_Wait_Tick =now ;       
 535   3              if(AHT20_READ.IIC_Bit_Cnt == 8) // ÕĘ▓µÄźµöČ8õĮŹµĢ░µŹ«
 536   3              {
 537   4                  AHT20_READ.Read_Event = READ_I2C_EVENT_SEND_ACK; // Ķ┐øÕģźÕÅæķĆüACKķśČµ«Ą
 538   4                  AHT20_READ.Read_State = READ_I2C_SEND_ACK_STEP0; // ÕÅæķĆüACKńÜäń¼¼õĖĆµŁź
 539   4                  *(AHT20_READ.IIC_Rx_Data) = AHT20_READ.IIC_Rx_Buffer; // Õ░åµÄźµöČÕł░ńÜäµĢ░µŹ«ÕŁśÕé©Õł░µīćÕ«ÜÕ
             -£░ÕØĆ
 540   4              }
 541   3              else
 542   3              {
 543   4                  AHT20_READ.Read_State = READ_I2C_RECEIVE_DATA_STEP1; // ń╗¦ń╗ŁµÄźµöČõĖŗõĖĆõĮŹµĢ░µŹ«
 544   4              }
C51 COMPILER V9.60.7.0   PLATFORM                                                          05/26/2026 10:51:57 PAGE 10  

 545   3              break;
 546   3       }
 547   2      }
 548   1       }
 549          
 550            void Platform_Aht20_Standard_IIC_Read_Send_Ack(void)
 551          {
 552   1          now = time_get_us();
 553   1          switch(AHT20_READ.Read_State)
 554   1          {
 555   2              //ńŁēÕŠģ3us’╝īÕÅæķĆüACK
 556   2              case READ_I2C_SEND_ACK_STEP0 :
 557   2              now = time_get_us();
 558   2              AHT20_READ.IIC_Wait_Tick =now ;   
 559   2              AHT20_READ.IIC_Rx_Buffer_Long++;
 560   2              if(AHT20_READ.IIC_Rx_Buffer_Long == 7)
 561   2              {
 562   3                  AHT20_READ.Read_Event = READ_I2C_EVENT_SEND_NACK_STEP; // Ķ┐øÕģźÕü£µŁóµØĪõ╗ČķśČµ«Ą
 563   3                  AHT20_READ.Read_State = READ_I2C_SEND_NACK_STEP1; // Õü£µŁóµØĪõ╗ČńÜäń¼¼õĖĆµŁź
 564   3              }
 565   2              else
 566   2              {
 567   3                  AHT20_READ.Read_State = READ_I2C_SEND_ACK_STEP1; // µÄźµöČµĢ░µŹ«ńÜäń¼¼õĖĆµŁź
 568   3              }
 569   2              break;
 570   2      
 571   2          case READ_I2C_SEND_ACK_STEP1 :
 572   2          if((now - AHT20_READ.IIC_Wait_Tick) >= IIC_DELAY_3US)
 573   2          {
 574   3              GPIO_Set(PIN_SDA, 0); // µŗēõĮÄSDAń║┐’╝īÕÅæķĆüACK
 575   3              now = time_get_us();
 576   3              AHT20_READ.IIC_Wait_Tick =now ;
 577   3              AHT20_READ.Read_State = READ_I2C_SEND_ACK_STEP2;
 578   3          }
 579   2          break;
 580   2              //ńŁēÕŠģ3us’╝īsclµŗēķ½ś
 581   2          case READ_I2C_SEND_ACK_STEP2 :
 582   2          if((now - AHT20_READ.IIC_Wait_Tick) >= IIC_DELAY_3US)
 583   2          {
 584   3              GPIO_Set(PIN_SCL, 1); // µŗēķ½śSCLń║┐’╝īÕ«īµłÉACKõĮŹńÜäµŚČķÆ¤Õæ©µ£¤
 585   3              now = time_get_us();
 586   3              AHT20_READ.IIC_Wait_Tick =now ;
 587   3              AHT20_READ.Read_State = READ_I2C_SEND_ACK_STEP3;
 588   3          }
 589   2          break;
 590   2              //õ┐Øµīüsclķ½śńöĄÕ╣│5us
 591   2          case READ_I2C_SEND_ACK_STEP3 :
 592   2          if((now - AHT20_READ.IIC_Wait_Tick) >= IIC_DELAY_5US)
 593   2          {
 594   3              GPIO_Set(PIN_SCL, 0); // µŗēõĮÄSCLń║┐’╝īń╗ōµØ¤ACKõĮŹńÜäµŚČķÆ¤Õæ©µ£¤
 595   3              now = time_get_us();
 596   3              AHT20_READ.IIC_Wait_Tick =now ;
 597   3              if (AHT20_READ.IIC_Rx_Buffer_Long < 7 ) 
 598   3              {
 599   4                  AHT20_READ.Read_Event = READ_I2C_EVENT_RECEIVE_DATA; 
 600   4                  AHT20_READ.Read_State = READ_I2C_RECEIVE_DATA_STEP0; 
 601   4                  AHT20_READ.IIC_Rx_Data++;  
 602   4              }
 603   3          }
 604   2      }
 605   1      }
 606          
C51 COMPILER V9.60.7.0   PLATFORM                                                          05/26/2026 10:51:57 PAGE 11  

 607          void Platform_Aht20_Standard_IIC_Read_Send_Nack(void)
 608          {
 609   1          now = time_get_us();
 610   1          switch(AHT20_READ.Read_State)
 611   1          {
 612   2              //ńŁēÕŠģ3us’╝īÕÅæķĆüNACK
 613   2          case READ_I2C_SEND_NACK_STEP1 :
 614   2          if((now - AHT20_READ.IIC_Wait_Tick) >= IIC_DELAY_3US)
 615   2          {
 616   3              GPIO_Set(PIN_SDA, 1); // µŗēķ½śSDAń║┐’╝īÕÅæķĆüNACK
 617   3              now = time_get_us();
 618   3              AHT20_READ.IIC_Wait_Tick =now ;
 619   3              AHT20_READ.Read_State = READ_I2C_SEND_NACK_STEP2;
 620   3          }
 621   2          break;
 622   2              //ńŁēÕŠģ3us’╝īsclµŗēķ½ś
 623   2          case READ_I2C_SEND_NACK_STEP2 :
 624   2          if((now - AHT20_READ.IIC_Wait_Tick) >= IIC_DELAY_3US)
 625   2          {
 626   3              GPIO_Set(PIN_SCL, 1); // µŗēķ½śSCLń║┐’╝īÕ«īµłÉNACKõĮŹńÜäµŚČķÆ¤Õæ©µ£¤
 627   3              now = time_get_us();
 628   3              AHT20_READ.IIC_Wait_Tick =now ;
 629   3              AHT20_READ.Read_State = READ_I2C_SEND_NACK_STEP3;
 630   3          }
 631   2          break;
 632   2              //õ┐Øµīüsclķ½śńöĄÕ╣│5us
 633   2          case READ_I2C_SEND_NACK_STEP3 :
 634   2          if((now - AHT20_READ.IIC_Wait_Tick) >= IIC_DELAY_5US)
 635   2          {
 636   3              GPIO_Set(PIN_SCL, 0); // µŗēõĮÄSCLń║┐’╝īń╗ōµØ¤NACKõĮŹńÜäµŚČķÆ¤Õæ©µ£¤
 637   3              now = time_get_us();
 638   3              AHT20_READ.IIC_Wait_Tick =now ;
 639   3              AHT20_READ.Read_Event = READ_I2C_EVENT_RE_STOP; // Ķ┐øÕģźÕü£µŁóµØĪõ╗ČķśČµ«Ą
 640   3              AHT20_READ.Read_State = READ_I2C_RE_STOP_STEP1; // Õü£µŁóµØĪõ╗ČńÜäń¼¼õĖĆµŁź
 641   3          }
 642   2          break;
 643   2      }
 644   1      }
 645          
 646          void Platform_Aht20_Standard_IIC_Read_Re_Stop(void)
 647          {
 648   1          now = time_get_us();
 649   1          switch(AHT20_READ.Read_State)
 650   1          {
 651   2            
 652   2          case READ_I2C_RE_STOP_STEP1 :
 653   2          if((now - AHT20_READ.IIC_Wait_Tick) >= IIC_DELAY_5US)
 654   2          {
 655   3              GPIO_Set(PIN_SDA, 0); // ńĪ«õ┐ØSDAń║┐õĖ║õĮÄńöĄÕ╣│
 656   3              GPIO_Set(PIN_SCL, 1); // µŗēķ½śSCLń║┐’╝īÕćåÕżćÕÅæķĆüÕü£µŁóµØĪõ╗Č
 657   3              now = time_get_us();
 658   3              AHT20_READ.IIC_Wait_Tick =now ;
 659   3              AHT20_READ.Read_State = READ_I2C_RE_STOP_STEP2;
 660   3          }
 661   2          break;
 662   2              //ńŁēÕŠģ3us’╝īµö╣ÕÅśsda
 663   2          case READ_I2C_RE_STOP_STEP2 :
 664   2          if((now - AHT20_READ.IIC_Wait_Tick) >= IIC_DELAY_3US)
 665   2          {
 666   3              GPIO_Set(PIN_SDA, 1); // Õ£©SCLķ½śńöĄÕ╣│µ£¤ķŚ┤Õ░åSDAń║┐µŗēķ½ś’╝īÕÅæķĆüÕü£µŁóµØĪõ╗Č
 667   3              now = time_get_us();
 668   3              AHT20_READ.IIC_Wait_Tick =now ;
C51 COMPILER V9.60.7.0   PLATFORM                                                          05/26/2026 10:51:57 PAGE 12  

 669   3              AHT20_READ.Read_State = READ_I2C_RE_STOP_STEP3;
 670   3          }
 671   2          break;
 672   2              //ńŁēÕŠģ5us’╝īÕ«īµłÉÕü£µŁóµØĪõ╗Č
 673   2          case READ_I2C_RE_STOP_STEP3 :
 674   2          if((now - AHT20_READ.IIC_Wait_Tick) >= IIC_DELAY_5US)
 675   2          {
 676   3               now = time_get_us();
 677   3              AHT20_READ.IIC_Wait_Tick =now ;
 678   3              AHT20_READ.IIC_Rx_Buffer_Long = 0;
 679   3              AHT20_READ.IIC_Bit_Cnt = 0;
 680   3              AHT20_READ.Read_Event = READ_I2C_EVENT_IDLE; // Ķ┐öÕø×ń®║ķŚ▓ńŖČµĆü
 681   3              AHT20_READ.Read_State = READ_I2C_START_STEP1; // ÕćåÕżćõĖŗõĖĆµ¼ĪķĆÜõ┐ĪńÜäĶĄĘÕ¦ŗµØĪõ╗Č
 682   3               AHT20_READ.IIC_Read_Complete = 1; // µĀćĶ«░Ķ»╗µōŹõĮ£Õ«īµłÉ
 683   3          }
 684   2          break;
 685   2      }
 686   1      }
 687          
 688          
 689          
 690          
 691          void Platform_Aht20_Standard_IIC_Read_Task(void) 
 692          {
 693   1          switch(AHT20_READ.Read_Event)
 694   1          {
 695   2              case  READ_I2C_EVENT_IDLE :   
 696   2                return ;
 697   2              break;
 698   2      
 699   2              case READ_I2C_EVENT_START:
 700   2              Platform_Aht20_Standard_IIC_Read_Start();
 701   2              break;
 702   2      
 703   2              case READ_I2C_EVENT_ADDRESS:
 704   2              Platform_Aht20_Standard_IIC_Read_Devidce_And_Word_Address();
 705   2              break;
 706   2      
 707   2               case READ_I2C_EVENT_RECEIVE_ACK:
 708   2              Platform_Aht20_Standard_IIC_Read_Receive_Ack();
 709   2              break;
 710   2      
 711   2              case READ_I2C_EVENT_STOP:
 712   2               Platform_Aht20_Standard_IIC_Read_Stop();
 713   2              break;
 714   2      
 715   2             case READ_I2C_EVENT_WAIT:
 716   2               Platform_Aht20_Standard_IIC_Read_Wait();
 717   2              break;
 718   2      
 719   2              case READ_I2C_EVENT_RE_START:
 720   2              Platform_Aht20_Standard_IIC_Read_Re_Start();
 721   2              break;
 722   2      
 723   2              case READ_I2C_EVENT_RE_ADDRESS:
 724   2              Platform_Aht20_Standard_IIC_Read_Re_Send_Address();
 725   2              break;
 726   2      
 727   2              case READ_I2C_EVENT_RE_RECEIVE_ACK:
 728   2              Platform_Aht20_Standard_IIC_Read_Re_Receive_Ack();
 729   2              break;
 730   2      
C51 COMPILER V9.60.7.0   PLATFORM                                                          05/26/2026 10:51:57 PAGE 13  

 731   2              case READ_I2C_EVENT_RECEIVE_DATA:
 732   2               Platform_Aht20_Standard_IIC_Read_Receive_Data();
 733   2              break;
 734   2      
 735   2              case READ_I2C_EVENT_SEND_ACK:
 736   2              Platform_Aht20_Standard_IIC_Read_Send_Ack();
 737   2              break;
 738   2      
 739   2              case READ_I2C_EVENT_SEND_NACK_STEP:
 740   2              Platform_Aht20_Standard_IIC_Read_Send_Nack();
 741   2              break;
 742   2      
 743   2              case READ_I2C_EVENT_RE_STOP:
 744   2              Platform_Aht20_Standard_IIC_Read_Re_Stop();
 745   2              break;
 746   2              
 747   2      
 748   2      
 749   2          }
 750   1      }
 751          
 752          unsigned char Platform_Aht20_Standard_IIC_Read_Complete_Flag(void) 
 753          {
 754   1          return AHT20_READ.IIC_Read_Complete;
 755   1      }
 756          
 757          unsigned char Platform_Aht20_Standard_IIC_Read_Complete_Flag_Clear(void) 
 758          {
 759   1          AHT20_READ.IIC_Read_Complete = 0;
 760   1          return AHT20_READ.IIC_Read_Complete;
 761   1      }
C51 COMPILER V9.60.7.0   PLATFORM                                                          05/26/2026 10:51:57 PAGE 14  

ASSEMBLY LISTING OF GENERATED OBJECT CODE


             ; FUNCTION L?0171 (BEGIN)
0000         L?0172:
0000 7D01              MOV     R5,#01H
0002 E4                CLR     A
0003 FF                MOV     R7,A
             ; FUNCTION _GPIO_Set (BEGIN)
                                           ; SOURCE LINE # 37
;---- Variable 'state' assigned to Register 'R5' ----
;---- Variable 'pin' assigned to Register 'R7' ----
                                           ; SOURCE LINE # 38
                                           ; SOURCE LINE # 39
0004 EF                MOV     A,R7
0005 14                DEC     A
0006 600D              JZ      ?C0003
0008 14                DEC     A
0009 6010              JZ      ?C0004
000B 2402              ADD     A,#02H
000D 7011              JNZ     ?C0006
                                           ; SOURCE LINE # 40
                                           ; SOURCE LINE # 41
000F         ?C0002:
                                           ; SOURCE LINE # 42
000F ED                MOV     A,R5
0010 24FF              ADD     A,#0FFH
0012 9290              MOV     IO_SCL,C
                                           ; SOURCE LINE # 43
0014 22                RET     
                                           ; SOURCE LINE # 44
0015         ?C0003:
                                           ; SOURCE LINE # 45
0015 ED                MOV     A,R5
0016 24FF              ADD     A,#0FFH
0018 9291              MOV     IO_SDA,C
                                           ; SOURCE LINE # 46
001A 22                RET     
                                           ; SOURCE LINE # 47
001B         ?C0004:
                                           ; SOURCE LINE # 48
001B ED                MOV     A,R5
001C 24FF              ADD     A,#0FFH
001E 9295              MOV     IO_BEEP,C
                                           ; SOURCE LINE # 49
                                           ; SOURCE LINE # 50
                                           ; SOURCE LINE # 51
                                           ; SOURCE LINE # 52
                                           ; SOURCE LINE # 53
0020         ?C0006:
0020 22                RET     
             ; FUNCTION _GPIO_Set (END)

             ; FUNCTION _GPIO_Get (BEGIN)
                                           ; SOURCE LINE # 55
;---- Variable 'pin' assigned to Register 'R7' ----
                                           ; SOURCE LINE # 56
                                           ; SOURCE LINE # 57
0000 EF                MOV     A,R7
0001 600F              JZ      ?C0011
0003 24FE              ADD     A,#0FEH
0005 6007              JZ      ?C0010
C51 COMPILER V9.60.7.0   PLATFORM                                                          05/26/2026 10:51:57 PAGE 15  

0007 04                INC     A
0008 700E              JNZ     ?C0012
                                           ; SOURCE LINE # 58
                                           ; SOURCE LINE # 59
000A         ?C0008:
                                           ; SOURCE LINE # 60
000A A291              MOV     C,IO_SDA
000C 8006              SJMP    ?C0166
                                           ; SOURCE LINE # 61
000E         ?C0010:
                                           ; SOURCE LINE # 62
000E A295              MOV     C,IO_BEEP
0010         ?C0165:
0010 8002              SJMP    ?C0166
                                           ; SOURCE LINE # 63
0012         ?C0011:
                                           ; SOURCE LINE # 64
0012 A290              MOV     C,IO_SCL
0014         ?C0166:
0014 E4                CLR     A
0015 33                RLC     A
0016 FF                MOV     R7,A
0017 22                RET     
                                           ; SOURCE LINE # 65
0018         ?C0012:
                                           ; SOURCE LINE # 66
0018 7F00              MOV     R7,#00H
                                           ; SOURCE LINE # 67
                                           ; SOURCE LINE # 68
001A         ?C0009:
001A 22                RET     
             ; FUNCTION _GPIO_Get (END)

             ; FUNCTION Timer0_SysTick_Init (BEGIN)
                                           ; SOURCE LINE # 70
                                           ; SOURCE LINE # 71
                                           ; SOURCE LINE # 72
0000 438901            ORL     TMOD,#01H
                                           ; SOURCE LINE # 74
0003 758CFF            MOV     TH0,#0FFH
                                           ; SOURCE LINE # 75
0006 758AFF            MOV     TL0,#0FFH
                                           ; SOURCE LINE # 77
0009 D2A9              SETB    ET0
                                           ; SOURCE LINE # 78
000B D28C              SETB    TR0
                                           ; SOURCE LINE # 79
000D D2AF              SETB    EA
                                           ; SOURCE LINE # 80
000F 22                RET     
             ; FUNCTION Timer0_SysTick_Init (END)

             ; FUNCTION Timer0_ISR (BEGIN)
0000 C0E0              PUSH    ACC
0002 C0D0              PUSH    PSW
0004 75D000            MOV     PSW,#00H
0007 C004              PUSH    AR4
0009 C005              PUSH    AR5
000B C006              PUSH    AR6
000D C007              PUSH    AR7
                                           ; SOURCE LINE # 82
                                           ; SOURCE LINE # 85
C51 COMPILER V9.60.7.0   PLATFORM                                                          05/26/2026 10:51:57 PAGE 16  

000F 758CFF            MOV     TH0,#0FFH
                                           ; SOURCE LINE # 86
0012 758AFF            MOV     TL0,#0FFH
                                           ; SOURCE LINE # 87
0015 AF00        R     MOV     R7,System_Tick+03H
0017 AE00        R     MOV     R6,System_Tick+02H
0019 AD00        R     MOV     R5,System_Tick+01H
001B AC00        R     MOV     R4,System_Tick
001D EF                MOV     A,R7
001E 2401              ADD     A,#01H
0020 F500        R     MOV     System_Tick+03H,A
0022 E4                CLR     A
0023 3E                ADDC    A,R6
0024 F500        R     MOV     System_Tick+02H,A
0026 E4                CLR     A
0027 3D                ADDC    A,R5
0028 F500        R     MOV     System_Tick+01H,A
002A E4                CLR     A
002B 3C                ADDC    A,R4
002C F500        R     MOV     System_Tick,A
                                           ; SOURCE LINE # 88
002E D007              POP     AR7
0030 D006              POP     AR6
0032 D005              POP     AR5
0034 D004              POP     AR4
0036 D0D0              POP     PSW
0038 D0E0              POP     ACC
003A 32                RETI    
             ; FUNCTION Timer0_ISR (END)

             ; FUNCTION L?0168 (BEGIN)
0000         L?0169:
0000 7D01              MOV     R5,#01H
0002         L?0170:
0002 7F01              MOV     R7,#01H
0004 120000      R     LCALL   _GPIO_Set
             ; FUNCTION time_get_us (BEGIN)
                                           ; SOURCE LINE # 90
                                           ; SOURCE LINE # 91
                                           ; SOURCE LINE # 92
0007 AF00        R     MOV     R7,System_Tick+03H
0009 AE00        R     MOV     R6,System_Tick+02H
000B AD00        R     MOV     R5,System_Tick+01H
000D AC00        R     MOV     R4,System_Tick
                                           ; SOURCE LINE # 93
000F 22                RET     
             ; FUNCTION time_get_us (END)

             ; FUNCTION _delay_ms (BEGIN)
                                           ; SOURCE LINE # 96
;---- Variable 'ms' assigned to Register 'R6/R7' ----
                                           ; SOURCE LINE # 97
                                           ; SOURCE LINE # 99
;---- Variable 'i' assigned to Register 'R4/R5' ----
0000 E4                CLR     A
0001 FD                MOV     R5,A
0002 FC                MOV     R4,A
0003         ?C0016:
0003 C3                CLR     C
0004 ED                MOV     A,R5
0005 9F                SUBB    A,R7
0006 EC                MOV     A,R4
C51 COMPILER V9.60.7.0   PLATFORM                                                          05/26/2026 10:51:57 PAGE 17  

0007 9E                SUBB    A,R6
0008 5015              JNC     ?C0022
                                           ; SOURCE LINE # 100
;---- Variable 'j' assigned to Register 'R2/R3' ----
000A E4                CLR     A
000B FB                MOV     R3,A
000C FA                MOV     R2,A
000D         ?C0019:
000D 0B                INC     R3
000E BB0001            CJNE    R3,#00H,?C0156
0011 0A                INC     R2
0012         ?C0156:
0012 EB                MOV     A,R3
0013 6478              XRL     A,#078H
0015 4A                ORL     A,R2
0016 70F5              JNZ     ?C0019
0018         ?C0018:
0018 0D                INC     R5
0019 BD0001            CJNE    R5,#00H,?C0157
001C 0C                INC     R4
001D         ?C0157:
001D 80E4              SJMP    ?C0016
                                           ; SOURCE LINE # 101
001F         ?C0022:
001F 22                RET     
             ; FUNCTION _delay_ms (END)

             ; FUNCTION Platform_UART_Init (BEGIN)
                                           ; SOURCE LINE # 107
                                           ; SOURCE LINE # 108
                                           ; SOURCE LINE # 109
0000 759850            MOV     SCON,#050H
                                           ; SOURCE LINE # 110
0003 438920            ORL     TMOD,#020H
                                           ; SOURCE LINE # 111
0006 758DFD            MOV     TH1,#0FDH
                                           ; SOURCE LINE # 112
0009 758BFD            MOV     TL1,#0FDH
                                           ; SOURCE LINE # 114
000C D28E              SETB    TR1
                                           ; SOURCE LINE # 116
000E D2AC              SETB    ES
                                           ; SOURCE LINE # 117
0010 D2AF              SETB    EA
                                           ; SOURCE LINE # 118
0012 22                RET     
             ; FUNCTION Platform_UART_Init (END)

             ; FUNCTION _Platform_UART_Send_Str (BEGIN)
                                           ; SOURCE LINE # 120
0000 8B00        R     MOV     str,R3
0002 8A00        R     MOV     str+01H,R2
0004 8900        R     MOV     str+02H,R1
;---- Variable 'len' assigned to Register 'R5' ----
                                           ; SOURCE LINE # 121
0006         ?C0024:
                                           ; SOURCE LINE # 122
0006 AF05              MOV     R7,AR5
0008 1D                DEC     R5
0009 EF                MOV     A,R7
000A 601A              JZ      ?C0028
                                           ; SOURCE LINE # 123
C51 COMPILER V9.60.7.0   PLATFORM                                                          05/26/2026 10:51:57 PAGE 18  

                                           ; SOURCE LINE # 124
000C AB00        R     MOV     R3,str
000E 0500        R     INC     str+02H
0010 E500        R     MOV     A,str+02H
0012 AA00        R     MOV     R2,str+01H
0014 7002              JNZ     ?C0158
0016 0500        R     INC     str+01H
0018         ?C0158:
0018 14                DEC     A
0019 F9                MOV     R1,A
001A 120000      E     LCALL   ?C?CLDPTR
001D F599              MOV     SBUF,A
001F         ?C0026:
                                           ; SOURCE LINE # 125
001F 3099FD            JNB     TI,?C0026
                                           ; SOURCE LINE # 126
0022 C299              CLR     TI
                                           ; SOURCE LINE # 127
0024 80E0              SJMP    ?C0024
                                           ; SOURCE LINE # 128
0026         ?C0028:
0026 22                RET     
             ; FUNCTION _Platform_UART_Send_Str (END)

             ; FUNCTION _Platform_Aht20_Standard_IIC_Read_Address (BEGIN)
                                           ; SOURCE LINE # 130
;---- Variable 'adress' assigned to Register 'R1/R2/R3' ----
                                           ; SOURCE LINE # 131
                                           ; SOURCE LINE # 132
0000 8B00        R     MOV     AHT20_READ+05H,R3
0002 8A00        R     MOV     AHT20_READ+06H,R2
0004 8900        R     MOV     AHT20_READ+07H,R1
                                           ; SOURCE LINE # 133
0006 850000      R     MOV     AHT20_READ+08H,re_adress
0009 850000      R     MOV     AHT20_READ+09H,re_adress+01H
000C 850000      R     MOV     AHT20_READ+0AH,re_adress+02H
                                           ; SOURCE LINE # 134
000F 850000      R     MOV     AHT20_READ+0BH,dat
0012 850000      R     MOV     AHT20_READ+0CH,dat+01H
0015 850000      R     MOV     AHT20_READ+0DH,dat+02H
                                           ; SOURCE LINE # 135
0018 750001      R     MOV     AHT20_READ+013H,#01H
                                           ; SOURCE LINE # 136
001B 750001      R     MOV     AHT20_READ+012H,#01H
                                           ; SOURCE LINE # 137
001E E4                CLR     A
001F F500        R     MOV     AHT20_READ+011H,A
                                           ; SOURCE LINE # 138
0021 F500        R     MOV     AHT20_READ+0FH,A
                                           ; SOURCE LINE # 139
0023 F500        R     MOV     AHT20_READ+0EH,A
                                           ; SOURCE LINE # 140
0025 22                RET     
             ; FUNCTION _Platform_Aht20_Standard_IIC_Read_Address (END)

             ; FUNCTION Platform_Aht20_Standard_IIC_Read_Start (BEGIN)
                                           ; SOURCE LINE # 145
                                           ; SOURCE LINE # 146
                                           ; SOURCE LINE # 147
0000 120000      R     LCALL   time_get_us
0003 8F00        R     MOV     now+03H,R7
0005 8E00        R     MOV     now+02H,R6
C51 COMPILER V9.60.7.0   PLATFORM                                                          05/26/2026 10:51:57 PAGE 19  

0007 8D00        R     MOV     now+01H,R5
0009 8C00        R     MOV     now,R4
                                           ; SOURCE LINE # 148
000B E500        R     MOV     A,AHT20_READ+012H
000D 24FE              ADD     A,#0FEH
000F 6025              JZ      ?C0032
0011 14                DEC     A
0012 605A              JZ      ?C0034
0014 2402              ADD     A,#02H
0016 6003              JZ      $ + 5H
0018 020000      R     LJMP    ?C0036
                                           ; SOURCE LINE # 149
                                           ; SOURCE LINE # 151
001B         ?C0031:
                                           ; SOURCE LINE # 152
001B 7D01              MOV     R5,#01H
001D 7F01              MOV     R7,#01H
001F 120000      R     LCALL   _GPIO_Set
                                           ; SOURCE LINE # 153
0022 1F                DEC     R7
0023 120000      R     LCALL   _GPIO_Set
                                           ; SOURCE LINE # 154
0026 850000      R     MOV     AHT20_READ+03H,now+03H
0029 850000      R     MOV     AHT20_READ+02H,now+02H
002C 850000      R     MOV     AHT20_READ+01H,now+01H
002F 850000      R     MOV     AHT20_READ,now
                                           ; SOURCE LINE # 155
0032 750002      R     MOV     AHT20_READ+012H,#02H
                                           ; SOURCE LINE # 156
0035 22                RET     
                                           ; SOURCE LINE # 158
0036         ?C0032:
                                           ; SOURCE LINE # 159
0036 C3                CLR     C
0037 E500        R     MOV     A,now+03H
0039 9500        R     SUBB    A,AHT20_READ+03H
003B FF                MOV     R7,A
003C E500        R     MOV     A,now+02H
003E 9500        R     SUBB    A,AHT20_READ+02H
0040 FE                MOV     R6,A
0041 E500        R     MOV     A,now+01H
0043 9500        R     SUBB    A,AHT20_READ+01H
0045 FD                MOV     R5,A
0046 E500        R     MOV     A,now
0048 9500        R     SUBB    A,AHT20_READ
004A FC                MOV     R4,A
004B E4                CLR     A
004C 7B05              MOV     R3,#05H
004E FA                MOV     R2,A
004F F9                MOV     R1,A
0050 F8                MOV     R0,A
0051 D3                SETB    C
0052 120000      E     LCALL   ?C?ULCMP
0055 5050              JNC     ?C0036
                                           ; SOURCE LINE # 160
                                           ; SOURCE LINE # 161
0057 E4                CLR     A
0058 FD                MOV     R5,A
0059 7F01              MOV     R7,#01H
005B 120000      R     LCALL   _GPIO_Set
                                           ; SOURCE LINE # 162
005E 850000      R     MOV     AHT20_READ+03H,now+03H
C51 COMPILER V9.60.7.0   PLATFORM                                                          05/26/2026 10:51:57 PAGE 20  

0061 850000      R     MOV     AHT20_READ+02H,now+02H
0064 850000      R     MOV     AHT20_READ+01H,now+01H
0067 850000      R     MOV     AHT20_READ,now
                                           ; SOURCE LINE # 163
006A 750003      R     MOV     AHT20_READ+012H,#03H
                                           ; SOURCE LINE # 164
                                           ; SOURCE LINE # 165
006D 22                RET     
                                           ; SOURCE LINE # 167
006E         ?C0034:
                                           ; SOURCE LINE # 168
006E C3                CLR     C
006F E500        R     MOV     A,now+03H
0071 9500        R     SUBB    A,AHT20_READ+03H
0073 FF                MOV     R7,A
0074 E500        R     MOV     A,now+02H
0076 9500        R     SUBB    A,AHT20_READ+02H
0078 FE                MOV     R6,A
0079 E500        R     MOV     A,now+01H
007B 9500        R     SUBB    A,AHT20_READ+01H
007D FD                MOV     R5,A
007E E500        R     MOV     A,now
0080 9500        R     SUBB    A,AHT20_READ
0082 FC                MOV     R4,A
0083 E4                CLR     A
0084 7B05              MOV     R3,#05H
0086 FA                MOV     R2,A
0087 F9                MOV     R1,A
0088 F8                MOV     R0,A
0089 D3                SETB    C
008A 120000      E     LCALL   ?C?ULCMP
008D 5018              JNC     ?C0036
                                           ; SOURCE LINE # 169
                                           ; SOURCE LINE # 170
008F E4                CLR     A
0090 FD                MOV     R5,A
0091 FF                MOV     R7,A
0092 120000      R     LCALL   _GPIO_Set
                                           ; SOURCE LINE # 171
0095 850000      R     MOV     AHT20_READ+03H,now+03H
0098 850000      R     MOV     AHT20_READ+02H,now+02H
009B 850000      R     MOV     AHT20_READ+01H,now+01H
009E 850000      R     MOV     AHT20_READ,now
                                           ; SOURCE LINE # 172
00A1 750002      R     MOV     AHT20_READ+013H,#02H
                                           ; SOURCE LINE # 173
00A4 750004      R     MOV     AHT20_READ+012H,#04H
                                           ; SOURCE LINE # 174
                                           ; SOURCE LINE # 175
                                           ; SOURCE LINE # 176
                                           ; SOURCE LINE # 177
00A7         ?C0036:
00A7 22                RET     
             ; FUNCTION Platform_Aht20_Standard_IIC_Read_Start (END)

             ; FUNCTION Platform_Aht20_Standard_IIC_Read_Devidce_And_Word_Address (BEGIN)
                                           ; SOURCE LINE # 179
                                           ; SOURCE LINE # 180
                                           ; SOURCE LINE # 181
0000 120000      R     LCALL   time_get_us
0003 8F00        R     MOV     now+03H,R7
0005 8E00        R     MOV     now+02H,R6
C51 COMPILER V9.60.7.0   PLATFORM                                                          05/26/2026 10:51:57 PAGE 21  

0007 8D00        R     MOV     now+01H,R5
0009 8C00        R     MOV     now,R4
                                           ; SOURCE LINE # 182
000B E500        R     MOV     A,AHT20_READ+012H
000D 24FB              ADD     A,#0FBH
000F 6069              JZ      ?C0040
0011 14                DEC     A
0012 7003              JNZ     $ + 5H
0014 020000      R     LJMP    ?C0042
0017 14                DEC     A
0018 7003              JNZ     $ + 5H
001A 020000      R     LJMP    ?C0044
001D 2403              ADD     A,#03H
001F 6003              JZ      $ + 5H
0021 020000      R     LJMP    ?C0047
                                           ; SOURCE LINE # 183
                                           ; SOURCE LINE # 185
0024         ?C0038:
                                           ; SOURCE LINE # 186
0024 C3                CLR     C
0025 E500        R     MOV     A,now+03H
0027 9500        R     SUBB    A,AHT20_READ+03H
0029 FF                MOV     R7,A
002A E500        R     MOV     A,now+02H
002C 9500        R     SUBB    A,AHT20_READ+02H
002E FE                MOV     R6,A
002F E500        R     MOV     A,now+01H
0031 9500        R     SUBB    A,AHT20_READ+01H
0033 FD                MOV     R5,A
0034 E500        R     MOV     A,now
0036 9500        R     SUBB    A,AHT20_READ
0038 FC                MOV     R4,A
0039 E4                CLR     A
003A 7B05              MOV     R3,#05H
003C FA                MOV     R2,A
003D F9                MOV     R1,A
003E F8                MOV     R0,A
003F D3                SETB    C
0040 120000      E     LCALL   ?C?ULCMP
0043 4003              JC      $ + 5H
0045 020000      R     LJMP    ?C0047
                                           ; SOURCE LINE # 187
                                           ; SOURCE LINE # 188
0048 AB00        R     MOV     R3,AHT20_READ+05H
004A AA00        R     MOV     R2,AHT20_READ+06H
004C A900        R     MOV     R1,AHT20_READ+07H
004E 120000      E     LCALL   ?C?CLDPTR
0051 F500        R     MOV     AHT20_READ+04H,A
                                           ; SOURCE LINE # 189
0053 AF00        R     MOV     R7,AHT20_READ+0FH
0055 A807              MOV     R0,AR7
0057 08                INC     R0
0058 8002              SJMP    ?C0160
005A         ?C0159:
005A C3                CLR     C
005B 33                RLC     A
005C         ?C0160:
005C D8FC              DJNZ    R0,?C0159
005E F500        R     MOV     AHT20_READ+04H,A
                                           ; SOURCE LINE # 190
0060 5480              ANL     A,#080H
0062 FD                MOV     R5,A
C51 COMPILER V9.60.7.0   PLATFORM                                                          05/26/2026 10:51:57 PAGE 22  

                                           ; SOURCE LINE # 191
0063 120000      R     LCALL   L?0170
0066 8F00        R     MOV     now+03H,R7
0068 8E00        R     MOV     now+02H,R6
006A 8D00        R     MOV     now+01H,R5
006C 8C00        R     MOV     now,R4
                                           ; SOURCE LINE # 192
006E 8F00        R     MOV     AHT20_READ+03H,R7
0070 8E00        R     MOV     AHT20_READ+02H,R6
0072 8D00        R     MOV     AHT20_READ+01H,R5
0074 8C00        R     MOV     AHT20_READ,R4
                                           ; SOURCE LINE # 193
0076 750005      R     MOV     AHT20_READ+012H,#05H
                                           ; SOURCE LINE # 194
                                           ; SOURCE LINE # 195
0079 22                RET     
                                           ; SOURCE LINE # 197
007A         ?C0040:
                                           ; SOURCE LINE # 198
007A C3                CLR     C
007B E500        R     MOV     A,now+03H
007D 9500        R     SUBB    A,AHT20_READ+03H
007F FF                MOV     R7,A
0080 E500        R     MOV     A,now+02H
0082 9500        R     SUBB    A,AHT20_READ+02H
0084 FE                MOV     R6,A
0085 E500        R     MOV     A,now+01H
0087 9500        R     SUBB    A,AHT20_READ+01H
0089 FD                MOV     R5,A
008A E500        R     MOV     A,now
008C 9500        R     SUBB    A,AHT20_READ
008E FC                MOV     R4,A
008F E4                CLR     A
0090 7B03              MOV     R3,#03H
0092 FA                MOV     R2,A
0093 F9                MOV     R1,A
0094 F8                MOV     R0,A
0095 D3                SETB    C
0096 120000      E     LCALL   ?C?ULCMP
0099 4003              JC      $ + 5H
009B 020000      R     LJMP    ?C0047
                                           ; SOURCE LINE # 199
                                           ; SOURCE LINE # 200
009E 120000      R     LCALL   L?0171
                                           ; SOURCE LINE # 201
00A1 120000      R     LCALL   time_get_us
00A4 8F00        R     MOV     now+03H,R7
00A6 8E00        R     MOV     now+02H,R6
00A8 8D00        R     MOV     now+01H,R5
00AA 8C00        R     MOV     now,R4
                                           ; SOURCE LINE # 202
00AC 8F00        R     MOV     AHT20_READ+03H,R7
00AE 8E00        R     MOV     AHT20_READ+02H,R6
00B0 8D00        R     MOV     AHT20_READ+01H,R5
00B2 8C00        R     MOV     AHT20_READ,R4
                                           ; SOURCE LINE # 203
00B4 750006      R     MOV     AHT20_READ+012H,#06H
                                           ; SOURCE LINE # 204
                                           ; SOURCE LINE # 205
00B7 22                RET     
                                           ; SOURCE LINE # 207
00B8         ?C0042:
C51 COMPILER V9.60.7.0   PLATFORM                                                          05/26/2026 10:51:57 PAGE 23  

                                           ; SOURCE LINE # 208
00B8 C3                CLR     C
00B9 E500        R     MOV     A,now+03H
00BB 9500        R     SUBB    A,AHT20_READ+03H
00BD FF                MOV     R7,A
00BE E500        R     MOV     A,now+02H
00C0 9500        R     SUBB    A,AHT20_READ+02H
00C2 FE                MOV     R6,A
00C3 E500        R     MOV     A,now+01H
00C5 9500        R     SUBB    A,AHT20_READ+01H
00C7 FD                MOV     R5,A
00C8 E500        R     MOV     A,now
00CA 9500        R     SUBB    A,AHT20_READ
00CC FC                MOV     R4,A
00CD E4                CLR     A
00CE 7B05              MOV     R3,#05H
00D0 FA                MOV     R2,A
00D1 F9                MOV     R1,A
00D2 F8                MOV     R0,A
00D3 D3                SETB    C
00D4 120000      E     LCALL   ?C?ULCMP
00D7 5044              JNC     ?C0047
                                           ; SOURCE LINE # 209
                                           ; SOURCE LINE # 210
00D9 E4                CLR     A
00DA FD                MOV     R5,A
00DB FF                MOV     R7,A
00DC 120000      R     LCALL   _GPIO_Set
                                           ; SOURCE LINE # 211
00DF 750007      R     MOV     AHT20_READ+012H,#07H
                                           ; SOURCE LINE # 212
                                           ; SOURCE LINE # 213
00E2 22                RET     
                                           ; SOURCE LINE # 215
00E3         ?C0044:
                                           ; SOURCE LINE # 216
00E3 0500        R     INC     AHT20_READ+0FH
                                           ; SOURCE LINE # 217
00E5 E500        R     MOV     A,AHT20_READ+0FH
00E7 B4081D            CJNE    A,#08H,?C0045
                                           ; SOURCE LINE # 218
                                           ; SOURCE LINE # 219
00EA E4                CLR     A
00EB F500        R     MOV     AHT20_READ+0FH,A
                                           ; SOURCE LINE # 220
00ED 120000      R     LCALL   time_get_us
00F0 8F00        R     MOV     now+03H,R7
00F2 8E00        R     MOV     now+02H,R6
00F4 8D00        R     MOV     now+01H,R5
00F6 8C00        R     MOV     now,R4
                                           ; SOURCE LINE # 221
00F8 8F00        R     MOV     AHT20_READ+03H,R7
00FA 8E00        R     MOV     AHT20_READ+02H,R6
00FC 8D00        R     MOV     AHT20_READ+01H,R5
00FE 8C00        R     MOV     AHT20_READ,R4
                                           ; SOURCE LINE # 222
0100 750003      R     MOV     AHT20_READ+013H,#03H
                                           ; SOURCE LINE # 223
0103 750008      R     MOV     AHT20_READ+012H,#08H
                                           ; SOURCE LINE # 224
0106 22                RET     
0107         ?C0045:
C51 COMPILER V9.60.7.0   PLATFORM                                                          05/26/2026 10:51:57 PAGE 24  

                                           ; SOURCE LINE # 226
                                           ; SOURCE LINE # 227
0107 120000      R     LCALL   time_get_us
010A 8F00        R     MOV     now+03H,R7
010C 8E00        R     MOV     now+02H,R6
010E 8D00        R     MOV     now+01H,R5
0110 8C00        R     MOV     now,R4
                                           ; SOURCE LINE # 228
0112 8F00        R     MOV     AHT20_READ+03H,R7
0114 8E00        R     MOV     AHT20_READ+02H,R6
0116 8D00        R     MOV     AHT20_READ+01H,R5
0118 8C00        R     MOV     AHT20_READ,R4
                                           ; SOURCE LINE # 229
011A 750004      R     MOV     AHT20_READ+012H,#04H
                                           ; SOURCE LINE # 230
                                           ; SOURCE LINE # 231
                                           ; SOURCE LINE # 232
                                           ; SOURCE LINE # 233
011D         ?C0047:
011D 22                RET     
             ; FUNCTION Platform_Aht20_Standard_IIC_Read_Devidce_And_Word_Address (END)

             ; FUNCTION Platform_Aht20_Standard_IIC_Read_Receive_Ack (BEGIN)
                                           ; SOURCE LINE # 235
                                           ; SOURCE LINE # 236
                                           ; SOURCE LINE # 237
0000 120000      R     LCALL   time_get_us
0003 8F00        R     MOV     now+03H,R7
0005 8E00        R     MOV     now+02H,R6
0007 8D00        R     MOV     now+01H,R5
0009 8C00        R     MOV     now,R4
                                           ; SOURCE LINE # 238
000B E500        R     MOV     A,AHT20_READ+012H
000D 24F7              ADD     A,#0F7H
000F 6048              JZ      ?C0051
0011 14                DEC     A
0012 7003              JNZ     $ + 5H
0014 020000      R     LJMP    ?C0053
0017 2402              ADD     A,#02H
0019 6003              JZ      $ + 5H
001B 020000      R     LJMP    ?C0059
                                           ; SOURCE LINE # 239
                                           ; SOURCE LINE # 241
001E         ?C0049:
                                           ; SOURCE LINE # 242
001E C3                CLR     C
001F E500        R     MOV     A,now+03H
0021 9500        R     SUBB    A,AHT20_READ+03H
0023 FF                MOV     R7,A
0024 E500        R     MOV     A,now+02H
0026 9500        R     SUBB    A,AHT20_READ+02H
0028 FE                MOV     R6,A
0029 E500        R     MOV     A,now+01H
002B 9500        R     SUBB    A,AHT20_READ+01H
002D FD                MOV     R5,A
002E E500        R     MOV     A,now
0030 9500        R     SUBB    A,AHT20_READ
0032 FC                MOV     R4,A
0033 E4                CLR     A
0034 7B03              MOV     R3,#03H
0036 FA                MOV     R2,A
0037 F9                MOV     R1,A
C51 COMPILER V9.60.7.0   PLATFORM                                                          05/26/2026 10:51:57 PAGE 25  

0038 F8                MOV     R0,A
0039 D3                SETB    C
003A 120000      E     LCALL   ?C?ULCMP
003D 4003              JC      $ + 5H
003F 020000      R     LJMP    ?C0059
                                           ; SOURCE LINE # 243
                                           ; SOURCE LINE # 244
                                           ; SOURCE LINE # 245
0042 120000      R     LCALL   L?0168
0045 8F00        R     MOV     now+03H,R7
0047 8E00        R     MOV     now+02H,R6
0049 8D00        R     MOV     now+01H,R5
004B 8C00        R     MOV     now,R4
                                           ; SOURCE LINE # 246
004D 8F00        R     MOV     AHT20_READ+03H,R7
004F 8E00        R     MOV     AHT20_READ+02H,R6
0051 8D00        R     MOV     AHT20_READ+01H,R5
0053 8C00        R     MOV     AHT20_READ,R4
                                           ; SOURCE LINE # 247
0055 750009      R     MOV     AHT20_READ+012H,#09H
                                           ; SOURCE LINE # 248
                                           ; SOURCE LINE # 249
0058 22                RET     
                                           ; SOURCE LINE # 251
0059         ?C0051:
                                           ; SOURCE LINE # 252
0059 C3                CLR     C
005A E500        R     MOV     A,now+03H
005C 9500        R     SUBB    A,AHT20_READ+03H
005E FF                MOV     R7,A
005F E500        R     MOV     A,now+02H
0061 9500        R     SUBB    A,AHT20_READ+02H
0063 FE                MOV     R6,A
0064 E500        R     MOV     A,now+01H
0066 9500        R     SUBB    A,AHT20_READ+01H
0068 FD                MOV     R5,A
0069 E500        R     MOV     A,now
006B 9500        R     SUBB    A,AHT20_READ
006D FC                MOV     R4,A
006E E4                CLR     A
006F 7B03              MOV     R3,#03H
0071 FA                MOV     R2,A
0072 F9                MOV     R1,A
0073 F8                MOV     R0,A
0074 D3                SETB    C
0075 120000      E     LCALL   ?C?ULCMP
0078 4003              JC      $ + 5H
007A 020000      R     LJMP    ?C0059
                                           ; SOURCE LINE # 253
                                           ; SOURCE LINE # 254
007D 120000      R     LCALL   L?0171
                                           ; SOURCE LINE # 255
0080 120000      R     LCALL   time_get_us
0083 8F00        R     MOV     now+03H,R7
0085 8E00        R     MOV     now+02H,R6
0087 8D00        R     MOV     now+01H,R5
0089 8C00        R     MOV     now,R4
                                           ; SOURCE LINE # 256
008B 8F00        R     MOV     AHT20_READ+03H,R7
008D 8E00        R     MOV     AHT20_READ+02H,R6
008F 8D00        R     MOV     AHT20_READ+01H,R5
0091 8C00        R     MOV     AHT20_READ,R4
C51 COMPILER V9.60.7.0   PLATFORM                                                          05/26/2026 10:51:57 PAGE 26  

                                           ; SOURCE LINE # 257
0093 75000A      R     MOV     AHT20_READ+012H,#0AH
                                           ; SOURCE LINE # 258
                                           ; SOURCE LINE # 259
0096 22                RET     
                                           ; SOURCE LINE # 261
0097         ?C0053:
                                           ; SOURCE LINE # 262
0097 C3                CLR     C
0098 E500        R     MOV     A,now+03H
009A 9500        R     SUBB    A,AHT20_READ+03H
009C FF                MOV     R7,A
009D E500        R     MOV     A,now+02H
009F 9500        R     SUBB    A,AHT20_READ+02H
00A1 FE                MOV     R6,A
00A2 E500        R     MOV     A,now+01H
00A4 9500        R     SUBB    A,AHT20_READ+01H
00A6 FD                MOV     R5,A
00A7 E500        R     MOV     A,now
00A9 9500        R     SUBB    A,AHT20_READ
00AB FC                MOV     R4,A
00AC E4                CLR     A
00AD 7B05              MOV     R3,#05H
00AF FA                MOV     R2,A
00B0 F9                MOV     R1,A
00B1 F8                MOV     R0,A
00B2 D3                SETB    C
00B3 120000      E     LCALL   ?C?ULCMP
00B6 5052              JNC     ?C0059
                                           ; SOURCE LINE # 263
                                           ; SOURCE LINE # 264
00B8 0500        R     INC     AHT20_READ+0EH
                                           ; SOURCE LINE # 265
00BA E4                CLR     A
00BB F500        R     MOV     AHT20_READ+0FH,A
                                           ; SOURCE LINE # 266
00BD 7F01              MOV     R7,#01H
00BF 120000      R     LCALL   _GPIO_Get
00C2 8F00        R     MOV     AHT20_READ+010H,R7
                                           ; SOURCE LINE # 268
00C4 E4                CLR     A
00C5 FD                MOV     R5,A
00C6 FF                MOV     R7,A
00C7 120000      R     LCALL   _GPIO_Set
                                           ; SOURCE LINE # 269
00CA 120000      R     LCALL   time_get_us
00CD 8F00        R     MOV     now+03H,R7
00CF 8E00        R     MOV     now+02H,R6
00D1 8D00        R     MOV     now+01H,R5
00D3 8C00        R     MOV     now,R4
                                           ; SOURCE LINE # 270
00D5 8F00        R     MOV     AHT20_READ+03H,R7
00D7 8E00        R     MOV     AHT20_READ+02H,R6
00D9 8D00        R     MOV     AHT20_READ+01H,R5
00DB 8C00        R     MOV     AHT20_READ,R4
                                           ; SOURCE LINE # 272
00DD E500        R     MOV     A,AHT20_READ+010H
00DF 7023              JNZ     ?C0055
                                           ; SOURCE LINE # 273
                                           ; SOURCE LINE # 274
00E1 E500        R     MOV     A,AHT20_READ+0EH
00E3 C3                CLR     C
C51 COMPILER V9.60.7.0   PLATFORM                                                          05/26/2026 10:51:57 PAGE 27  

00E4 9404              SUBB    A,#04H
00E6 5012              JNC     ?C0056
                                           ; SOURCE LINE # 275
                                           ; SOURCE LINE # 276
00E8 7401              MOV     A,#01H
00EA 2500        R     ADD     A,AHT20_READ+07H
00EC F500        R     MOV     AHT20_READ+07H,A
00EE E4                CLR     A
00EF 3500        R     ADDC    A,AHT20_READ+06H
00F1 F500        R     MOV     AHT20_READ+06H,A
                                           ; SOURCE LINE # 277
00F3 750002      R     MOV     AHT20_READ+013H,#02H
                                           ; SOURCE LINE # 278
00F6 750004      R     MOV     AHT20_READ+012H,#04H
                                           ; SOURCE LINE # 279
00F9 22                RET     
00FA         ?C0056:
                                           ; SOURCE LINE # 281
                                           ; SOURCE LINE # 282
00FA E4                CLR     A
00FB F500        R     MOV     AHT20_READ+0EH,A
                                           ; SOURCE LINE # 283
00FD 750004      R     MOV     AHT20_READ+013H,#04H
                                           ; SOURCE LINE # 284
0100 750027      R     MOV     AHT20_READ+012H,#027H
                                           ; SOURCE LINE # 285
                                           ; SOURCE LINE # 287
0103 22                RET     
0104         ?C0055:
                                           ; SOURCE LINE # 289
                                           ; SOURCE LINE # 291
0104 75000D      R     MOV     AHT20_READ+013H,#0DH
                                           ; SOURCE LINE # 292
0107 75002A      R     MOV     AHT20_READ+012H,#02AH
                                           ; SOURCE LINE # 293
                                           ; SOURCE LINE # 294
                                           ; SOURCE LINE # 295
                                           ; SOURCE LINE # 296
                                           ; SOURCE LINE # 297
010A         ?C0059:
010A 22                RET     
             ; FUNCTION Platform_Aht20_Standard_IIC_Read_Receive_Ack (END)

             ; FUNCTION Platform_Aht20_Standard_IIC_Read_Stop (BEGIN)
                                           ; SOURCE LINE # 299
                                           ; SOURCE LINE # 300
                                           ; SOURCE LINE # 301
0000 120000      R     LCALL   time_get_us
0003 8F00        R     MOV     now+03H,R7
0005 8E00        R     MOV     now+02H,R6
0007 8D00        R     MOV     now+01H,R5
0009 8C00        R     MOV     now,R4
                                           ; SOURCE LINE # 302
000B E500        R     MOV     A,AHT20_READ+012H
000D 24D8              ADD     A,#0D8H
000F 6054              JZ      ?C0063
0011 14                DEC     A
0012 7003              JNZ     $ + 5H
0014 020000      R     LJMP    ?C0065
0017 2402              ADD     A,#02H
0019 6003              JZ      $ + 5H
001B 020000      R     LJMP    ?C0067
C51 COMPILER V9.60.7.0   PLATFORM                                                          05/26/2026 10:51:57 PAGE 28  

                                           ; SOURCE LINE # 303
                                           ; SOURCE LINE # 305
001E         ?C0061:
                                           ; SOURCE LINE # 306
001E C3                CLR     C
001F E500        R     MOV     A,now+03H
0021 9500        R     SUBB    A,AHT20_READ+03H
0023 FF                MOV     R7,A
0024 E500        R     MOV     A,now+02H
0026 9500        R     SUBB    A,AHT20_READ+02H
0028 FE                MOV     R6,A
0029 E500        R     MOV     A,now+01H
002B 9500        R     SUBB    A,AHT20_READ+01H
002D FD                MOV     R5,A
002E E500        R     MOV     A,now
0030 9500        R     SUBB    A,AHT20_READ
0032 FC                MOV     R4,A
0033 E4                CLR     A
0034 7B05              MOV     R3,#05H
0036 FA                MOV     R2,A
0037 F9                MOV     R1,A
0038 F8                MOV     R0,A
0039 D3                SETB    C
003A 120000      E     LCALL   ?C?ULCMP
003D 4003              JC      $ + 5H
003F 020000      R     LJMP    ?C0067
                                           ; SOURCE LINE # 307
                                           ; SOURCE LINE # 308
0042 E4                CLR     A
0043 FD                MOV     R5,A
0044 7F01              MOV     R7,#01H
0046 120000      R     LCALL   _GPIO_Set
                                           ; SOURCE LINE # 309
0049 0D                INC     R5
004A 1F                DEC     R7
004B 120000      R     LCALL   _GPIO_Set
                                           ; SOURCE LINE # 310
004E 120000      R     LCALL   time_get_us
0051 8F00        R     MOV     now+03H,R7
0053 8E00        R     MOV     now+02H,R6
0055 8D00        R     MOV     now+01H,R5
0057 8C00        R     MOV     now,R4
                                           ; SOURCE LINE # 311
0059 8F00        R     MOV     AHT20_READ+03H,R7
005B 8E00        R     MOV     AHT20_READ+02H,R6
005D 8D00        R     MOV     AHT20_READ+01H,R5
005F 8C00        R     MOV     AHT20_READ,R4
                                           ; SOURCE LINE # 312
0061 750028      R     MOV     AHT20_READ+012H,#028H
                                           ; SOURCE LINE # 313
                                           ; SOURCE LINE # 314
0064 22                RET     
                                           ; SOURCE LINE # 316
0065         ?C0063:
                                           ; SOURCE LINE # 317
0065 C3                CLR     C
0066 E500        R     MOV     A,now+03H
0068 9500        R     SUBB    A,AHT20_READ+03H
006A FF                MOV     R7,A
006B E500        R     MOV     A,now+02H
006D 9500        R     SUBB    A,AHT20_READ+02H
006F FE                MOV     R6,A
C51 COMPILER V9.60.7.0   PLATFORM                                                          05/26/2026 10:51:57 PAGE 29  

0070 E500        R     MOV     A,now+01H
0072 9500        R     SUBB    A,AHT20_READ+01H
0074 FD                MOV     R5,A
0075 E500        R     MOV     A,now
0077 9500        R     SUBB    A,AHT20_READ
0079 FC                MOV     R4,A
007A E4                CLR     A
007B 7B03              MOV     R3,#03H
007D FA                MOV     R2,A
007E F9                MOV     R1,A
007F F8                MOV     R0,A
0080 D3                SETB    C
0081 120000      E     LCALL   ?C?ULCMP
0084 5051              JNC     ?C0067
                                           ; SOURCE LINE # 318
                                           ; SOURCE LINE # 319
                                           ; SOURCE LINE # 320
0086 120000      R     LCALL   L?0168
0089 8F00        R     MOV     now+03H,R7
008B 8E00        R     MOV     now+02H,R6
008D 8D00        R     MOV     now+01H,R5
008F 8C00        R     MOV     now,R4
                                           ; SOURCE LINE # 321
0091 8F00        R     MOV     AHT20_READ+03H,R7
0093 8E00        R     MOV     AHT20_READ+02H,R6
0095 8D00        R     MOV     AHT20_READ+01H,R5
0097 8C00        R     MOV     AHT20_READ,R4
                                           ; SOURCE LINE # 322
0099 750029      R     MOV     AHT20_READ+012H,#029H
                                           ; SOURCE LINE # 323
                                           ; SOURCE LINE # 324
009C 22                RET     
                                           ; SOURCE LINE # 326
009D         ?C0065:
                                           ; SOURCE LINE # 327
009D C3                CLR     C
009E E500        R     MOV     A,now+03H
00A0 9500        R     SUBB    A,AHT20_READ+03H
00A2 FF                MOV     R7,A
00A3 E500        R     MOV     A,now+02H
00A5 9500        R     SUBB    A,AHT20_READ+02H
00A7 FE                MOV     R6,A
00A8 E500        R     MOV     A,now+01H
00AA 9500        R     SUBB    A,AHT20_READ+01H
00AC FD                MOV     R5,A
00AD E500        R     MOV     A,now
00AF 9500        R     SUBB    A,AHT20_READ
00B1 FC                MOV     R4,A
00B2 E4                CLR     A
00B3 7B05              MOV     R3,#05H
00B5 FA                MOV     R2,A
00B6 F9                MOV     R1,A
00B7 F8                MOV     R0,A
00B8 D3                SETB    C
00B9 120000      E     LCALL   ?C?ULCMP
00BC 5019              JNC     ?C0067
                                           ; SOURCE LINE # 328
                                           ; SOURCE LINE # 329
00BE 120000      R     LCALL   time_get_us
00C1 8F00        R     MOV     now+03H,R7
00C3 8E00        R     MOV     now+02H,R6
00C5 8D00        R     MOV     now+01H,R5
C51 COMPILER V9.60.7.0   PLATFORM                                                          05/26/2026 10:51:57 PAGE 30  

00C7 8C00        R     MOV     now,R4
                                           ; SOURCE LINE # 330
00C9 8F00        R     MOV     AHT20_READ+03H,R7
00CB 8E00        R     MOV     AHT20_READ+02H,R6
00CD 8D00        R     MOV     AHT20_READ+01H,R5
00CF 8C00        R     MOV     AHT20_READ,R4
                                           ; SOURCE LINE # 331
00D1 750005      R     MOV     AHT20_READ+013H,#05H
                                           ; SOURCE LINE # 332
00D4 75000B      R     MOV     AHT20_READ+012H,#0BH
                                           ; SOURCE LINE # 333
                                           ; SOURCE LINE # 334
                                           ; SOURCE LINE # 335
                                           ; SOURCE LINE # 336
00D7         ?C0067:
00D7 22                RET     
             ; FUNCTION Platform_Aht20_Standard_IIC_Read_Stop (END)

             ; FUNCTION Platform_Aht20_Standard_IIC_Read_Wait (BEGIN)
                                           ; SOURCE LINE # 338
                                           ; SOURCE LINE # 339
                                           ; SOURCE LINE # 340
0000 120000      R     LCALL   time_get_us
0003 8F00        R     MOV     now+03H,R7
0005 8E00        R     MOV     now+02H,R6
0007 8D00        R     MOV     now+01H,R5
0009 8C00        R     MOV     now,R4
                                           ; SOURCE LINE # 341
000B E500        R     MOV     A,AHT20_READ+012H
000D 24F5              ADD     A,#0F5H
000F 7029              JNZ     ?C0071
                                           ; SOURCE LINE # 342
                                           ; SOURCE LINE # 343
0011         ?C0069:
                                           ; SOURCE LINE # 344
0011 C3                CLR     C
0012 E500        R     MOV     A,now+03H
0014 9500        R     SUBB    A,AHT20_READ+03H
0016 FF                MOV     R7,A
0017 E500        R     MOV     A,now+02H
0019 9500        R     SUBB    A,AHT20_READ+02H
001B FE                MOV     R6,A
001C E500        R     MOV     A,now+01H
001E 9500        R     SUBB    A,AHT20_READ+01H
0020 FD                MOV     R5,A
0021 E500        R     MOV     A,now
0023 9500        R     SUBB    A,AHT20_READ
0025 FC                MOV     R4,A
0026 7B80              MOV     R3,#080H
0028 7A38              MOV     R2,#038H
002A 7901              MOV     R1,#01H
002C 7800              MOV     R0,#00H
002E D3                SETB    C
002F 120000      E     LCALL   ?C?ULCMP
0032 5006              JNC     ?C0071
                                           ; SOURCE LINE # 345
                                           ; SOURCE LINE # 346
0034 750006      R     MOV     AHT20_READ+013H,#06H
                                           ; SOURCE LINE # 347
0037 75000C      R     MOV     AHT20_READ+012H,#0CH
                                           ; SOURCE LINE # 348
                                           ; SOURCE LINE # 349
C51 COMPILER V9.60.7.0   PLATFORM                                                          05/26/2026 10:51:57 PAGE 31  

                                           ; SOURCE LINE # 350
                                           ; SOURCE LINE # 351
003A         ?C0071:
003A 22                RET     
             ; FUNCTION Platform_Aht20_Standard_IIC_Read_Wait (END)

             ; FUNCTION Platform_Aht20_Standard_IIC_Read_Re_Start (BEGIN)
                                           ; SOURCE LINE # 353
                                           ; SOURCE LINE # 354
                                           ; SOURCE LINE # 355
0000 120000      R     LCALL   time_get_us
0003 8F00        R     MOV     now+03H,R7
0005 8E00        R     MOV     now+02H,R6
0007 8D00        R     MOV     now+01H,R5
0009 8C00        R     MOV     now,R4
                                           ; SOURCE LINE # 356
000B E500        R     MOV     A,AHT20_READ+012H
000D 24F3              ADD     A,#0F3H
000F 6025              JZ      ?C0074
0011 14                DEC     A
0012 605A              JZ      ?C0076
0014 2402              ADD     A,#02H
0016 6003              JZ      $ + 5H
0018 020000      R     LJMP    ?C0078
                                           ; SOURCE LINE # 357
                                           ; SOURCE LINE # 359
001B         ?C0073:
                                           ; SOURCE LINE # 360
001B 7D01              MOV     R5,#01H
001D 7F01              MOV     R7,#01H
001F 120000      R     LCALL   _GPIO_Set
                                           ; SOURCE LINE # 361
0022 1F                DEC     R7
0023 120000      R     LCALL   _GPIO_Set
                                           ; SOURCE LINE # 362
0026 850000      R     MOV     AHT20_READ+03H,now+03H
0029 850000      R     MOV     AHT20_READ+02H,now+02H
002C 850000      R     MOV     AHT20_READ+01H,now+01H
002F 850000      R     MOV     AHT20_READ,now
                                           ; SOURCE LINE # 363
0032 75000D      R     MOV     AHT20_READ+012H,#0DH
                                           ; SOURCE LINE # 364
0035 22                RET     
                                           ; SOURCE LINE # 366
0036         ?C0074:
                                           ; SOURCE LINE # 367
0036 C3                CLR     C
0037 E500        R     MOV     A,now+03H
0039 9500        R     SUBB    A,AHT20_READ+03H
003B FF                MOV     R7,A
003C E500        R     MOV     A,now+02H
003E 9500        R     SUBB    A,AHT20_READ+02H
0040 FE                MOV     R6,A
0041 E500        R     MOV     A,now+01H
0043 9500        R     SUBB    A,AHT20_READ+01H
0045 FD                MOV     R5,A
0046 E500        R     MOV     A,now
0048 9500        R     SUBB    A,AHT20_READ
004A FC                MOV     R4,A
004B E4                CLR     A
004C 7B05              MOV     R3,#05H
004E FA                MOV     R2,A
C51 COMPILER V9.60.7.0   PLATFORM                                                          05/26/2026 10:51:57 PAGE 32  

004F F9                MOV     R1,A
0050 F8                MOV     R0,A
0051 D3                SETB    C
0052 120000      E     LCALL   ?C?ULCMP
0055 5050              JNC     ?C0078
                                           ; SOURCE LINE # 368
                                           ; SOURCE LINE # 369
0057 E4                CLR     A
0058 FD                MOV     R5,A
0059 7F01              MOV     R7,#01H
005B 120000      R     LCALL   _GPIO_Set
                                           ; SOURCE LINE # 370
005E 850000      R     MOV     AHT20_READ+03H,now+03H
0061 850000      R     MOV     AHT20_READ+02H,now+02H
0064 850000      R     MOV     AHT20_READ+01H,now+01H
0067 850000      R     MOV     AHT20_READ,now
                                           ; SOURCE LINE # 371
006A 75000E      R     MOV     AHT20_READ+012H,#0EH
                                           ; SOURCE LINE # 372
                                           ; SOURCE LINE # 373
006D 22                RET     
                                           ; SOURCE LINE # 375
006E         ?C0076:
                                           ; SOURCE LINE # 376
006E C3                CLR     C
006F E500        R     MOV     A,now+03H
0071 9500        R     SUBB    A,AHT20_READ+03H
0073 FF                MOV     R7,A
0074 E500        R     MOV     A,now+02H
0076 9500        R     SUBB    A,AHT20_READ+02H
0078 FE                MOV     R6,A
0079 E500        R     MOV     A,now+01H
007B 9500        R     SUBB    A,AHT20_READ+01H
007D FD                MOV     R5,A
007E E500        R     MOV     A,now
0080 9500        R     SUBB    A,AHT20_READ
0082 FC                MOV     R4,A
0083 E4                CLR     A
0084 7B05              MOV     R3,#05H
0086 FA                MOV     R2,A
0087 F9                MOV     R1,A
0088 F8                MOV     R0,A
0089 D3                SETB    C
008A 120000      E     LCALL   ?C?ULCMP
008D 5018              JNC     ?C0078
                                           ; SOURCE LINE # 377
                                           ; SOURCE LINE # 378
008F E4                CLR     A
0090 FD                MOV     R5,A
0091 FF                MOV     R7,A
0092 120000      R     LCALL   _GPIO_Set
                                           ; SOURCE LINE # 379
0095 850000      R     MOV     AHT20_READ+03H,now+03H
0098 850000      R     MOV     AHT20_READ+02H,now+02H
009B 850000      R     MOV     AHT20_READ+01H,now+01H
009E 850000      R     MOV     AHT20_READ,now
                                           ; SOURCE LINE # 380
00A1 750007      R     MOV     AHT20_READ+013H,#07H
                                           ; SOURCE LINE # 381
00A4 750011      R     MOV     AHT20_READ+012H,#011H
                                           ; SOURCE LINE # 382
                                           ; SOURCE LINE # 383
C51 COMPILER V9.60.7.0   PLATFORM                                                          05/26/2026 10:51:57 PAGE 33  

                                           ; SOURCE LINE # 384
                                           ; SOURCE LINE # 385
00A7         ?C0078:
00A7 22                RET     
             ; FUNCTION Platform_Aht20_Standard_IIC_Read_Re_Start (END)

             ; FUNCTION Platform_Aht20_Standard_IIC_Read_Re_Send_Address (BEGIN)
                                           ; SOURCE LINE # 387
                                           ; SOURCE LINE # 388
                                           ; SOURCE LINE # 389
0000 120000      R     LCALL   time_get_us
0003 8F00        R     MOV     now+03H,R7
0005 8E00        R     MOV     now+02H,R6
0007 8D00        R     MOV     now+01H,R5
0009 8C00        R     MOV     now,R4
                                           ; SOURCE LINE # 390
000B E500        R     MOV     A,AHT20_READ+012H
000D 24EE              ADD     A,#0EEH
000F 6069              JZ      ?C0082
0011 14                DEC     A
0012 7003              JNZ     $ + 5H
0014 020000      R     LJMP    ?C0084
0017 14                DEC     A
0018 7003              JNZ     $ + 5H
001A 020000      R     LJMP    ?C0086
001D 2403              ADD     A,#03H
001F 6003              JZ      $ + 5H
0021 020000      R     LJMP    ?C0089
                                           ; SOURCE LINE # 391
                                           ; SOURCE LINE # 393
0024         ?C0080:
                                           ; SOURCE LINE # 394
0024 C3                CLR     C
0025 E500        R     MOV     A,now+03H
0027 9500        R     SUBB    A,AHT20_READ+03H
0029 FF                MOV     R7,A
002A E500        R     MOV     A,now+02H
002C 9500        R     SUBB    A,AHT20_READ+02H
002E FE                MOV     R6,A
002F E500        R     MOV     A,now+01H
0031 9500        R     SUBB    A,AHT20_READ+01H
0033 FD                MOV     R5,A
0034 E500        R     MOV     A,now
0036 9500        R     SUBB    A,AHT20_READ
0038 FC                MOV     R4,A
0039 E4                CLR     A
003A 7B03              MOV     R3,#03H
003C FA                MOV     R2,A
003D F9                MOV     R1,A
003E F8                MOV     R0,A
003F D3                SETB    C
0040 120000      E     LCALL   ?C?ULCMP
0043 4003              JC      $ + 5H
0045 020000      R     LJMP    ?C0089
                                           ; SOURCE LINE # 395
                                           ; SOURCE LINE # 396
0048 AB00        R     MOV     R3,AHT20_READ+08H
004A AA00        R     MOV     R2,AHT20_READ+09H
004C A900        R     MOV     R1,AHT20_READ+0AH
004E 120000      E     LCALL   ?C?CLDPTR
0051 F500        R     MOV     AHT20_READ+04H,A
                                           ; SOURCE LINE # 397
C51 COMPILER V9.60.7.0   PLATFORM                                                          05/26/2026 10:51:57 PAGE 34  

0053 AF00        R     MOV     R7,AHT20_READ+0FH
0055 A807              MOV     R0,AR7
0057 08                INC     R0
0058 8002              SJMP    ?C0162
005A         ?C0161:
005A C3                CLR     C
005B 33                RLC     A
005C         ?C0162:
005C D8FC              DJNZ    R0,?C0161
005E F500        R     MOV     AHT20_READ+04H,A
                                           ; SOURCE LINE # 398
0060 5480              ANL     A,#080H
0062 FD                MOV     R5,A
                                           ; SOURCE LINE # 399
0063 120000      R     LCALL   L?0170
0066 8F00        R     MOV     now+03H,R7
0068 8E00        R     MOV     now+02H,R6
006A 8D00        R     MOV     now+01H,R5
006C 8C00        R     MOV     now,R4
                                           ; SOURCE LINE # 400
006E 8F00        R     MOV     AHT20_READ+03H,R7
0070 8E00        R     MOV     AHT20_READ+02H,R6
0072 8D00        R     MOV     AHT20_READ+01H,R5
0074 8C00        R     MOV     AHT20_READ,R4
                                           ; SOURCE LINE # 401
0076 750012      R     MOV     AHT20_READ+012H,#012H
                                           ; SOURCE LINE # 402
                                           ; SOURCE LINE # 403
0079 22                RET     
                                           ; SOURCE LINE # 405
007A         ?C0082:
                                           ; SOURCE LINE # 406
007A C3                CLR     C
007B E500        R     MOV     A,now+03H
007D 9500        R     SUBB    A,AHT20_READ+03H
007F FF                MOV     R7,A
0080 E500        R     MOV     A,now+02H
0082 9500        R     SUBB    A,AHT20_READ+02H
0084 FE                MOV     R6,A
0085 E500        R     MOV     A,now+01H
0087 9500        R     SUBB    A,AHT20_READ+01H
0089 FD                MOV     R5,A
008A E500        R     MOV     A,now
008C 9500        R     SUBB    A,AHT20_READ
008E FC                MOV     R4,A
008F E4                CLR     A
0090 7B03              MOV     R3,#03H
0092 FA                MOV     R2,A
0093 F9                MOV     R1,A
0094 F8                MOV     R0,A
0095 D3                SETB    C
0096 120000      E     LCALL   ?C?ULCMP
0099 4003              JC      $ + 5H
009B 020000      R     LJMP    ?C0089
                                           ; SOURCE LINE # 407
                                           ; SOURCE LINE # 408
009E 120000      R     LCALL   L?0172
                                           ; SOURCE LINE # 409
00A1 120000      R     LCALL   time_get_us
00A4 8F00        R     MOV     now+03H,R7
00A6 8E00        R     MOV     now+02H,R6
00A8 8D00        R     MOV     now+01H,R5
C51 COMPILER V9.60.7.0   PLATFORM                                                          05/26/2026 10:51:57 PAGE 35  

00AA 8C00        R     MOV     now,R4
                                           ; SOURCE LINE # 410
00AC 8F00        R     MOV     AHT20_READ+03H,R7
00AE 8E00        R     MOV     AHT20_READ+02H,R6
00B0 8D00        R     MOV     AHT20_READ+01H,R5
00B2 8C00        R     MOV     AHT20_READ,R4
                                           ; SOURCE LINE # 411
00B4 750013      R     MOV     AHT20_READ+012H,#013H
                                           ; SOURCE LINE # 412
                                           ; SOURCE LINE # 413
00B7 22                RET     
                                           ; SOURCE LINE # 415
00B8         ?C0084:
                                           ; SOURCE LINE # 416
00B8 C3                CLR     C
00B9 E500        R     MOV     A,now+03H
00BB 9500        R     SUBB    A,AHT20_READ+03H
00BD FF                MOV     R7,A
00BE E500        R     MOV     A,now+02H
00C0 9500        R     SUBB    A,AHT20_READ+02H
00C2 FE                MOV     R6,A
00C3 E500        R     MOV     A,now+01H
00C5 9500        R     SUBB    A,AHT20_READ+01H
00C7 FD                MOV     R5,A
00C8 E500        R     MOV     A,now
00CA 9500        R     SUBB    A,AHT20_READ
00CC FC                MOV     R4,A
00CD E4                CLR     A
00CE 7B05              MOV     R3,#05H
00D0 FA                MOV     R2,A
00D1 F9                MOV     R1,A
00D2 F8                MOV     R0,A
00D3 D3                SETB    C
00D4 120000      E     LCALL   ?C?ULCMP
00D7 5044              JNC     ?C0089
                                           ; SOURCE LINE # 417
                                           ; SOURCE LINE # 418
00D9 E4                CLR     A
00DA FD                MOV     R5,A
00DB FF                MOV     R7,A
00DC 120000      R     LCALL   _GPIO_Set
                                           ; SOURCE LINE # 419
00DF 750014      R     MOV     AHT20_READ+012H,#014H
                                           ; SOURCE LINE # 420
                                           ; SOURCE LINE # 421
00E2 22                RET     
                                           ; SOURCE LINE # 423
00E3         ?C0086:
                                           ; SOURCE LINE # 424
00E3 0500        R     INC     AHT20_READ+0FH
                                           ; SOURCE LINE # 425
00E5 E500        R     MOV     A,AHT20_READ+0FH
00E7 B4081D            CJNE    A,#08H,?C0087
                                           ; SOURCE LINE # 426
                                           ; SOURCE LINE # 427
00EA E4                CLR     A
00EB F500        R     MOV     AHT20_READ+0FH,A
                                           ; SOURCE LINE # 428
00ED 120000      R     LCALL   time_get_us
00F0 8F00        R     MOV     now+03H,R7
00F2 8E00        R     MOV     now+02H,R6
00F4 8D00        R     MOV     now+01H,R5
C51 COMPILER V9.60.7.0   PLATFORM                                                          05/26/2026 10:51:57 PAGE 36  

00F6 8C00        R     MOV     now,R4
                                           ; SOURCE LINE # 429
00F8 8F00        R     MOV     AHT20_READ+03H,R7
00FA 8E00        R     MOV     AHT20_READ+02H,R6
00FC 8D00        R     MOV     AHT20_READ+01H,R5
00FE 8C00        R     MOV     AHT20_READ,R4
                                           ; SOURCE LINE # 430
0100 750008      R     MOV     AHT20_READ+013H,#08H
                                           ; SOURCE LINE # 431
0103 750016      R     MOV     AHT20_READ+012H,#016H
                                           ; SOURCE LINE # 432
0106 22                RET     
0107         ?C0087:
                                           ; SOURCE LINE # 434
                                           ; SOURCE LINE # 435
0107 120000      R     LCALL   time_get_us
010A 8F00        R     MOV     now+03H,R7
010C 8E00        R     MOV     now+02H,R6
010E 8D00        R     MOV     now+01H,R5
0110 8C00        R     MOV     now,R4
                                           ; SOURCE LINE # 436
0112 8F00        R     MOV     AHT20_READ+03H,R7
0114 8E00        R     MOV     AHT20_READ+02H,R6
0116 8D00        R     MOV     AHT20_READ+01H,R5
0118 8C00        R     MOV     AHT20_READ,R4
                                           ; SOURCE LINE # 437
011A 750011      R     MOV     AHT20_READ+012H,#011H
                                           ; SOURCE LINE # 438
                                           ; SOURCE LINE # 439
                                           ; SOURCE LINE # 440
                                           ; SOURCE LINE # 441
011D         ?C0089:
011D 22                RET     
             ; FUNCTION Platform_Aht20_Standard_IIC_Read_Re_Send_Address (END)

             ; FUNCTION Platform_Aht20_Standard_IIC_Read_Re_Receive_Ack (BEGIN)
                                           ; SOURCE LINE # 443
                                           ; SOURCE LINE # 444
                                           ; SOURCE LINE # 445
0000 120000      R     LCALL   time_get_us
0003 8F00        R     MOV     now+03H,R7
0005 8E00        R     MOV     now+02H,R6
0007 8D00        R     MOV     now+01H,R5
0009 8C00        R     MOV     now,R4
                                           ; SOURCE LINE # 446
000B E500        R     MOV     A,AHT20_READ+012H
000D 24E9              ADD     A,#0E9H
000F 6048              JZ      ?C0093
0011 14                DEC     A
0012 7003              JNZ     $ + 5H
0014 020000      R     LJMP    ?C0095
0017 2402              ADD     A,#02H
0019 6003              JZ      $ + 5H
001B 020000      R     LJMP    ?C0099
                                           ; SOURCE LINE # 447
                                           ; SOURCE LINE # 449
001E         ?C0091:
                                           ; SOURCE LINE # 450
001E C3                CLR     C
001F E500        R     MOV     A,now+03H
0021 9500        R     SUBB    A,AHT20_READ+03H
0023 FF                MOV     R7,A
C51 COMPILER V9.60.7.0   PLATFORM                                                          05/26/2026 10:51:57 PAGE 37  

0024 E500        R     MOV     A,now+02H
0026 9500        R     SUBB    A,AHT20_READ+02H
0028 FE                MOV     R6,A
0029 E500        R     MOV     A,now+01H
002B 9500        R     SUBB    A,AHT20_READ+01H
002D FD                MOV     R5,A
002E E500        R     MOV     A,now
0030 9500        R     SUBB    A,AHT20_READ
0032 FC                MOV     R4,A
0033 E4                CLR     A
0034 7B03              MOV     R3,#03H
0036 FA                MOV     R2,A
0037 F9                MOV     R1,A
0038 F8                MOV     R0,A
0039 D3                SETB    C
003A 120000      E     LCALL   ?C?ULCMP
003D 4003              JC      $ + 5H
003F 020000      R     LJMP    ?C0099
                                           ; SOURCE LINE # 451
                                           ; SOURCE LINE # 452
                                           ; SOURCE LINE # 453
0042 120000      R     LCALL   L?0169
0045 8F00        R     MOV     now+03H,R7
0047 8E00        R     MOV     now+02H,R6
0049 8D00        R     MOV     now+01H,R5
004B 8C00        R     MOV     now,R4
                                           ; SOURCE LINE # 454
004D 8F00        R     MOV     AHT20_READ+03H,R7
004F 8E00        R     MOV     AHT20_READ+02H,R6
0051 8D00        R     MOV     AHT20_READ+01H,R5
0053 8C00        R     MOV     AHT20_READ,R4
                                           ; SOURCE LINE # 455
0055 750017      R     MOV     AHT20_READ+012H,#017H
                                           ; SOURCE LINE # 456
                                           ; SOURCE LINE # 457
0058 22                RET     
                                           ; SOURCE LINE # 459
0059         ?C0093:
                                           ; SOURCE LINE # 460
0059 C3                CLR     C
005A E500        R     MOV     A,now+03H
005C 9500        R     SUBB    A,AHT20_READ+03H
005E FF                MOV     R7,A
005F E500        R     MOV     A,now+02H
0061 9500        R     SUBB    A,AHT20_READ+02H
0063 FE                MOV     R6,A
0064 E500        R     MOV     A,now+01H
0066 9500        R     SUBB    A,AHT20_READ+01H
0068 FD                MOV     R5,A
0069 E500        R     MOV     A,now
006B 9500        R     SUBB    A,AHT20_READ
006D FC                MOV     R4,A
006E E4                CLR     A
006F 7B03              MOV     R3,#03H
0071 FA                MOV     R2,A
0072 F9                MOV     R1,A
0073 F8                MOV     R0,A
0074 D3                SETB    C
0075 120000      E     LCALL   ?C?ULCMP
0078 506E              JNC     ?C0099
                                           ; SOURCE LINE # 461
                                           ; SOURCE LINE # 462
C51 COMPILER V9.60.7.0   PLATFORM                                                          05/26/2026 10:51:57 PAGE 38  

007A 120000      R     LCALL   L?0172
                                           ; SOURCE LINE # 463
007D 120000      R     LCALL   time_get_us
0080 8F00        R     MOV     now+03H,R7
0082 8E00        R     MOV     now+02H,R6
0084 8D00        R     MOV     now+01H,R5
0086 8C00        R     MOV     now,R4
                                           ; SOURCE LINE # 464
0088 8F00        R     MOV     AHT20_READ+03H,R7
008A 8E00        R     MOV     AHT20_READ+02H,R6
008C 8D00        R     MOV     AHT20_READ+01H,R5
008E 8C00        R     MOV     AHT20_READ,R4
                                           ; SOURCE LINE # 465
0090 750018      R     MOV     AHT20_READ+012H,#018H
                                           ; SOURCE LINE # 466
                                           ; SOURCE LINE # 467
0093 22                RET     
                                           ; SOURCE LINE # 469
0094         ?C0095:
                                           ; SOURCE LINE # 470
0094 C3                CLR     C
0095 E500        R     MOV     A,now+03H
0097 9500        R     SUBB    A,AHT20_READ+03H
0099 FF                MOV     R7,A
009A E500        R     MOV     A,now+02H
009C 9500        R     SUBB    A,AHT20_READ+02H
009E FE                MOV     R6,A
009F E500        R     MOV     A,now+01H
00A1 9500        R     SUBB    A,AHT20_READ+01H
00A3 FD                MOV     R5,A
00A4 E500        R     MOV     A,now
00A6 9500        R     SUBB    A,AHT20_READ
00A8 FC                MOV     R4,A
00A9 E4                CLR     A
00AA 7B05              MOV     R3,#05H
00AC FA                MOV     R2,A
00AD F9                MOV     R1,A
00AE F8                MOV     R0,A
00AF D3                SETB    C
00B0 120000      E     LCALL   ?C?ULCMP
00B3 5033              JNC     ?C0099
                                           ; SOURCE LINE # 471
                                           ; SOURCE LINE # 472
00B5 7F01              MOV     R7,#01H
00B7 120000      R     LCALL   _GPIO_Get
00BA 8F00        R     MOV     AHT20_READ+010H,R7
                                           ; SOURCE LINE # 473
00BC E4                CLR     A
00BD F500        R     MOV     AHT20_READ+0FH,A
                                           ; SOURCE LINE # 474
00BF FD                MOV     R5,A
00C0 FF                MOV     R7,A
00C1 120000      R     LCALL   _GPIO_Set
                                           ; SOURCE LINE # 475
00C4 120000      R     LCALL   time_get_us
00C7 8F00        R     MOV     now+03H,R7
00C9 8E00        R     MOV     now+02H,R6
00CB 8D00        R     MOV     now+01H,R5
00CD 8C00        R     MOV     now,R4
                                           ; SOURCE LINE # 476
00CF 8F00        R     MOV     AHT20_READ+03H,R7
00D1 8E00        R     MOV     AHT20_READ+02H,R6
C51 COMPILER V9.60.7.0   PLATFORM                                                          05/26/2026 10:51:57 PAGE 39  

00D3 8D00        R     MOV     AHT20_READ+01H,R5
00D5 8C00        R     MOV     AHT20_READ,R4
                                           ; SOURCE LINE # 477
00D7 E500        R     MOV     A,AHT20_READ+010H
00D9 7007              JNZ     ?C0097
                                           ; SOURCE LINE # 478
                                           ; SOURCE LINE # 479
00DB 750009      R     MOV     AHT20_READ+013H,#09H
                                           ; SOURCE LINE # 480
00DE 750019      R     MOV     AHT20_READ+012H,#019H
                                           ; SOURCE LINE # 481
00E1 22                RET     
00E2         ?C0097:
                                           ; SOURCE LINE # 483
                                           ; SOURCE LINE # 485
00E2 75000D      R     MOV     AHT20_READ+013H,#0DH
                                           ; SOURCE LINE # 486
00E5 75002A      R     MOV     AHT20_READ+012H,#02AH
                                           ; SOURCE LINE # 487
                                           ; SOURCE LINE # 488
                                           ; SOURCE LINE # 489
                                           ; SOURCE LINE # 490
                                           ; SOURCE LINE # 491
00E8         ?C0099:
00E8 22                RET     
             ; FUNCTION Platform_Aht20_Standard_IIC_Read_Re_Receive_Ack (END)

             ; FUNCTION Platform_Aht20_Standard_IIC_Read_Receive_Data (BEGIN)
                                           ; SOURCE LINE # 494
                                           ; SOURCE LINE # 495
                                           ; SOURCE LINE # 496
0000 120000      R     LCALL   time_get_us
0003 8F00        R     MOV     now+03H,R7
0005 8E00        R     MOV     now+02H,R6
0007 8D00        R     MOV     now+01H,R5
0009 8C00        R     MOV     now,R4
                                           ; SOURCE LINE # 497
000B E500        R     MOV     A,AHT20_READ+012H
000D 24E6              ADD     A,#0E6H
000F 6018              JZ      ?C0102
0011 14                DEC     A
0012 6050              JZ      ?C0104
0014 14                DEC     A
0015 7003              JNZ     $ + 5H
0017 020000      R     LJMP    ?C0106
001A 2403              ADD     A,#03H
001C 6003              JZ      $ + 5H
001E 020000      R     LJMP    ?C0110
                                           ; SOURCE LINE # 498
                                           ; SOURCE LINE # 500
0021         ?C0101:
                                           ; SOURCE LINE # 501
0021 E4                CLR     A
0022 F500        R     MOV     AHT20_READ+04H,A
                                           ; SOURCE LINE # 502
0024 F500        R     MOV     AHT20_READ+0FH,A
                                           ; SOURCE LINE # 503
                                           ; SOURCE LINE # 504
0026 020000      R     LJMP    ?C0167
                                           ; SOURCE LINE # 506
0029         ?C0102:
                                           ; SOURCE LINE # 507
C51 COMPILER V9.60.7.0   PLATFORM                                                          05/26/2026 10:51:57 PAGE 40  

0029 C3                CLR     C
002A E500        R     MOV     A,now+03H
002C 9500        R     SUBB    A,AHT20_READ+03H
002E FF                MOV     R7,A
002F E500        R     MOV     A,now+02H
0031 9500        R     SUBB    A,AHT20_READ+02H
0033 FE                MOV     R6,A
0034 E500        R     MOV     A,now+01H
0036 9500        R     SUBB    A,AHT20_READ+01H
0038 FD                MOV     R5,A
0039 E500        R     MOV     A,now
003B 9500        R     SUBB    A,AHT20_READ
003D FC                MOV     R4,A
003E E4                CLR     A
003F 7B03              MOV     R3,#03H
0041 FA                MOV     R2,A
0042 F9                MOV     R1,A
0043 F8                MOV     R0,A
0044 D3                SETB    C
0045 120000      E     LCALL   ?C?ULCMP
0048 4003              JC      $ + 5H
004A 020000      R     LJMP    ?C0110
                                           ; SOURCE LINE # 508
                                           ; SOURCE LINE # 509
                                           ; SOURCE LINE # 510
004D 120000      R     LCALL   L?0169
0050 8F00        R     MOV     now+03H,R7
0052 8E00        R     MOV     now+02H,R6
0054 8D00        R     MOV     now+01H,R5
0056 8C00        R     MOV     now,R4
                                           ; SOURCE LINE # 511
0058 8F00        R     MOV     AHT20_READ+03H,R7
005A 8E00        R     MOV     AHT20_READ+02H,R6
005C 8D00        R     MOV     AHT20_READ+01H,R5
005E 8C00        R     MOV     AHT20_READ,R4
                                           ; SOURCE LINE # 512
0060 75001B      R     MOV     AHT20_READ+012H,#01BH
                                           ; SOURCE LINE # 513
                                           ; SOURCE LINE # 514
0063 22                RET     
                                           ; SOURCE LINE # 516
0064         ?C0104:
                                           ; SOURCE LINE # 517
0064 C3                CLR     C
0065 E500        R     MOV     A,now+03H
0067 9500        R     SUBB    A,AHT20_READ+03H
0069 FF                MOV     R7,A
006A E500        R     MOV     A,now+02H
006C 9500        R     SUBB    A,AHT20_READ+02H
006E FE                MOV     R6,A
006F E500        R     MOV     A,now+01H
0071 9500        R     SUBB    A,AHT20_READ+01H
0073 FD                MOV     R5,A
0074 E500        R     MOV     A,now
0076 9500        R     SUBB    A,AHT20_READ
0078 FC                MOV     R4,A
0079 E4                CLR     A
007A 7B03              MOV     R3,#03H
007C FA                MOV     R2,A
007D F9                MOV     R1,A
007E F8                MOV     R0,A
007F D3                SETB    C
C51 COMPILER V9.60.7.0   PLATFORM                                                          05/26/2026 10:51:57 PAGE 41  

0080 120000      E     LCALL   ?C?ULCMP
0083 507C              JNC     ?C0110
                                           ; SOURCE LINE # 518
                                           ; SOURCE LINE # 519
0085 120000      R     LCALL   L?0172
                                           ; SOURCE LINE # 520
0088 E500        R     MOV     A,AHT20_READ+04H
008A 25E0              ADD     A,ACC
008C F500        R     MOV     AHT20_READ+04H,A
                                           ; SOURCE LINE # 521
008E 0F                INC     R7
008F 120000      R     LCALL   _GPIO_Get
0092 EF                MOV     A,R7
0093 4200        R     ORL     AHT20_READ+04H,A
                                           ; SOURCE LINE # 522
0095 0500        R     INC     AHT20_READ+0FH
                                           ; SOURCE LINE # 523
0097 120000      R     LCALL   time_get_us
009A 8F00        R     MOV     now+03H,R7
009C 8E00        R     MOV     now+02H,R6
009E 8D00        R     MOV     now+01H,R5
00A0 8C00        R     MOV     now,R4
                                           ; SOURCE LINE # 524
00A2 8F00        R     MOV     AHT20_READ+03H,R7
00A4 8E00        R     MOV     AHT20_READ+02H,R6
00A6 8D00        R     MOV     AHT20_READ+01H,R5
00A8 8C00        R     MOV     AHT20_READ,R4
                                           ; SOURCE LINE # 525
00AA 75001C      R     MOV     AHT20_READ+012H,#01CH
                                           ; SOURCE LINE # 526
                                           ; SOURCE LINE # 527
00AD 22                RET     
                                           ; SOURCE LINE # 529
00AE         ?C0106:
                                           ; SOURCE LINE # 530
00AE C3                CLR     C
00AF E500        R     MOV     A,now+03H
00B1 9500        R     SUBB    A,AHT20_READ+03H
00B3 FF                MOV     R7,A
00B4 E500        R     MOV     A,now+02H
00B6 9500        R     SUBB    A,AHT20_READ+02H
00B8 FE                MOV     R6,A
00B9 E500        R     MOV     A,now+01H
00BB 9500        R     SUBB    A,AHT20_READ+01H
00BD FD                MOV     R5,A
00BE E500        R     MOV     A,now
00C0 9500        R     SUBB    A,AHT20_READ
00C2 FC                MOV     R4,A
00C3 E4                CLR     A
00C4 7B05              MOV     R3,#05H
00C6 FA                MOV     R2,A
00C7 F9                MOV     R1,A
00C8 F8                MOV     R0,A
00C9 D3                SETB    C
00CA 120000      E     LCALL   ?C?ULCMP
00CD 5032              JNC     ?C0110
                                           ; SOURCE LINE # 531
                                           ; SOURCE LINE # 532
00CF E4                CLR     A
00D0 FD                MOV     R5,A
00D1 FF                MOV     R7,A
00D2 120000      R     LCALL   _GPIO_Set
C51 COMPILER V9.60.7.0   PLATFORM                                                          05/26/2026 10:51:57 PAGE 42  

                                           ; SOURCE LINE # 533
00D5 120000      R     LCALL   time_get_us
00D8 8F00        R     MOV     now+03H,R7
00DA 8E00        R     MOV     now+02H,R6
00DC 8D00        R     MOV     now+01H,R5
00DE 8C00        R     MOV     now,R4
                                           ; SOURCE LINE # 534
00E0 8F00        R     MOV     AHT20_READ+03H,R7
00E2 8E00        R     MOV     AHT20_READ+02H,R6
00E4 8D00        R     MOV     AHT20_READ+01H,R5
00E6 8C00        R     MOV     AHT20_READ,R4
                                           ; SOURCE LINE # 535
00E8 E500        R     MOV     A,AHT20_READ+0FH
00EA B40811            CJNE    A,#08H,?C0108
                                           ; SOURCE LINE # 536
                                           ; SOURCE LINE # 537
00ED 75000B      R     MOV     AHT20_READ+013H,#0BH
                                           ; SOURCE LINE # 538
00F0 75001D      R     MOV     AHT20_READ+012H,#01DH
                                           ; SOURCE LINE # 539
00F3 AB00        R     MOV     R3,AHT20_READ+0BH
00F5 AA00        R     MOV     R2,AHT20_READ+0CH
00F7 A900        R     MOV     R1,AHT20_READ+0DH
00F9 E500        R     MOV     A,AHT20_READ+04H
00FB 020000      E     LJMP    ?C?CSTPTR
                                           ; SOURCE LINE # 540
00FE         ?C0108:
                                           ; SOURCE LINE # 542
                                           ; SOURCE LINE # 543
00FE         ?C0167:
00FE 75001A      R     MOV     AHT20_READ+012H,#01AH
                                           ; SOURCE LINE # 544
                                           ; SOURCE LINE # 545
                                           ; SOURCE LINE # 546
                                           ; SOURCE LINE # 547
                                           ; SOURCE LINE # 548
0101         ?C0110:
0101 22                RET     
             ; FUNCTION Platform_Aht20_Standard_IIC_Read_Receive_Data (END)

             ; FUNCTION Platform_Aht20_Standard_IIC_Read_Send_Ack (BEGIN)
                                           ; SOURCE LINE # 550
                                           ; SOURCE LINE # 551
                                           ; SOURCE LINE # 552
0000 120000      R     LCALL   time_get_us
0003 8F00        R     MOV     now+03H,R7
0005 8E00        R     MOV     now+02H,R6
0007 8D00        R     MOV     now+01H,R5
0009 8C00        R     MOV     now,R4
                                           ; SOURCE LINE # 553
000B E500        R     MOV     A,AHT20_READ+012H
000D 24E2              ADD     A,#0E2H
000F 6035              JZ      ?C0115
0011 14                DEC     A
0012 606F              JZ      ?C0117
0014 14                DEC     A
0015 7003              JNZ     $ + 5H
0017 020000      R     LJMP    ?C0119
001A 2403              ADD     A,#03H
001C 6003              JZ      $ + 5H
001E 020000      R     LJMP    ?C0122
                                           ; SOURCE LINE # 554
C51 COMPILER V9.60.7.0   PLATFORM                                                          05/26/2026 10:51:57 PAGE 43  

                                           ; SOURCE LINE # 556
0021         ?C0112:
                                           ; SOURCE LINE # 557
0021 120000      R     LCALL   time_get_us
0024 8F00        R     MOV     now+03H,R7
0026 8E00        R     MOV     now+02H,R6
0028 8D00        R     MOV     now+01H,R5
002A 8C00        R     MOV     now,R4
                                           ; SOURCE LINE # 558
002C 8F00        R     MOV     AHT20_READ+03H,R7
002E 8E00        R     MOV     AHT20_READ+02H,R6
0030 8D00        R     MOV     AHT20_READ+01H,R5
0032 8C00        R     MOV     AHT20_READ,R4
                                           ; SOURCE LINE # 559
0034 0500        R     INC     AHT20_READ+0EH
                                           ; SOURCE LINE # 560
0036 E500        R     MOV     A,AHT20_READ+0EH
0038 B40707            CJNE    A,#07H,?C0113
                                           ; SOURCE LINE # 561
                                           ; SOURCE LINE # 562
003B 75000C      R     MOV     AHT20_READ+013H,#0CH
                                           ; SOURCE LINE # 563
003E 750023      R     MOV     AHT20_READ+012H,#023H
                                           ; SOURCE LINE # 564
0041 22                RET     
0042         ?C0113:
                                           ; SOURCE LINE # 566
                                           ; SOURCE LINE # 567
0042 75001E      R     MOV     AHT20_READ+012H,#01EH
                                           ; SOURCE LINE # 568
                                           ; SOURCE LINE # 569
0045 22                RET     
                                           ; SOURCE LINE # 571
0046         ?C0115:
                                           ; SOURCE LINE # 572
0046 C3                CLR     C
0047 E500        R     MOV     A,now+03H
0049 9500        R     SUBB    A,AHT20_READ+03H
004B FF                MOV     R7,A
004C E500        R     MOV     A,now+02H
004E 9500        R     SUBB    A,AHT20_READ+02H
0050 FE                MOV     R6,A
0051 E500        R     MOV     A,now+01H
0053 9500        R     SUBB    A,AHT20_READ+01H
0055 FD                MOV     R5,A
0056 E500        R     MOV     A,now
0058 9500        R     SUBB    A,AHT20_READ
005A FC                MOV     R4,A
005B E4                CLR     A
005C 7B03              MOV     R3,#03H
005E FA                MOV     R2,A
005F F9                MOV     R1,A
0060 F8                MOV     R0,A
0061 D3                SETB    C
0062 120000      E     LCALL   ?C?ULCMP
0065 4003              JC      $ + 5H
0067 020000      R     LJMP    ?C0122
                                           ; SOURCE LINE # 573
                                           ; SOURCE LINE # 574
006A E4                CLR     A
006B FD                MOV     R5,A
                                           ; SOURCE LINE # 575
C51 COMPILER V9.60.7.0   PLATFORM                                                          05/26/2026 10:51:57 PAGE 44  

006C 120000      R     LCALL   L?0170
006F 8F00        R     MOV     now+03H,R7
0071 8E00        R     MOV     now+02H,R6
0073 8D00        R     MOV     now+01H,R5
0075 8C00        R     MOV     now,R4
                                           ; SOURCE LINE # 576
0077 8F00        R     MOV     AHT20_READ+03H,R7
0079 8E00        R     MOV     AHT20_READ+02H,R6
007B 8D00        R     MOV     AHT20_READ+01H,R5
007D 8C00        R     MOV     AHT20_READ,R4
                                           ; SOURCE LINE # 577
007F 75001F      R     MOV     AHT20_READ+012H,#01FH
                                           ; SOURCE LINE # 578
                                           ; SOURCE LINE # 579
0082 22                RET     
                                           ; SOURCE LINE # 581
0083         ?C0117:
                                           ; SOURCE LINE # 582
0083 C3                CLR     C
0084 E500        R     MOV     A,now+03H
0086 9500        R     SUBB    A,AHT20_READ+03H
0088 FF                MOV     R7,A
0089 E500        R     MOV     A,now+02H
008B 9500        R     SUBB    A,AHT20_READ+02H
008D FE                MOV     R6,A
008E E500        R     MOV     A,now+01H
0090 9500        R     SUBB    A,AHT20_READ+01H
0092 FD                MOV     R5,A
0093 E500        R     MOV     A,now
0095 9500        R     SUBB    A,AHT20_READ
0097 FC                MOV     R4,A
0098 E4                CLR     A
0099 7B03              MOV     R3,#03H
009B FA                MOV     R2,A
009C F9                MOV     R1,A
009D F8                MOV     R0,A
009E D3                SETB    C
009F 120000      E     LCALL   ?C?ULCMP
00A2 506C              JNC     ?C0122
                                           ; SOURCE LINE # 583
                                           ; SOURCE LINE # 584
00A4 120000      R     LCALL   L?0172
                                           ; SOURCE LINE # 585
00A7 120000      R     LCALL   time_get_us
00AA 8F00        R     MOV     now+03H,R7
00AC 8E00        R     MOV     now+02H,R6
00AE 8D00        R     MOV     now+01H,R5
00B0 8C00        R     MOV     now,R4
                                           ; SOURCE LINE # 586
00B2 8F00        R     MOV     AHT20_READ+03H,R7
00B4 8E00        R     MOV     AHT20_READ+02H,R6
00B6 8D00        R     MOV     AHT20_READ+01H,R5
00B8 8C00        R     MOV     AHT20_READ,R4
                                           ; SOURCE LINE # 587
00BA 750020      R     MOV     AHT20_READ+012H,#020H
                                           ; SOURCE LINE # 588
                                           ; SOURCE LINE # 589
00BD 22                RET     
                                           ; SOURCE LINE # 591
00BE         ?C0119:
                                           ; SOURCE LINE # 592
00BE C3                CLR     C
C51 COMPILER V9.60.7.0   PLATFORM                                                          05/26/2026 10:51:57 PAGE 45  

00BF E500        R     MOV     A,now+03H
00C1 9500        R     SUBB    A,AHT20_READ+03H
00C3 FF                MOV     R7,A
00C4 E500        R     MOV     A,now+02H
00C6 9500        R     SUBB    A,AHT20_READ+02H
00C8 FE                MOV     R6,A
00C9 E500        R     MOV     A,now+01H
00CB 9500        R     SUBB    A,AHT20_READ+01H
00CD FD                MOV     R5,A
00CE E500        R     MOV     A,now
00D0 9500        R     SUBB    A,AHT20_READ
00D2 FC                MOV     R4,A
00D3 E4                CLR     A
00D4 7B05              MOV     R3,#05H
00D6 FA                MOV     R2,A
00D7 F9                MOV     R1,A
00D8 F8                MOV     R0,A
00D9 D3                SETB    C
00DA 120000      E     LCALL   ?C?ULCMP
00DD 5031              JNC     ?C0122
                                           ; SOURCE LINE # 593
                                           ; SOURCE LINE # 594
00DF E4                CLR     A
00E0 FD                MOV     R5,A
00E1 FF                MOV     R7,A
00E2 120000      R     LCALL   _GPIO_Set
                                           ; SOURCE LINE # 595
00E5 120000      R     LCALL   time_get_us
00E8 8F00        R     MOV     now+03H,R7
00EA 8E00        R     MOV     now+02H,R6
00EC 8D00        R     MOV     now+01H,R5
00EE 8C00        R     MOV     now,R4
                                           ; SOURCE LINE # 596
00F0 8F00        R     MOV     AHT20_READ+03H,R7
00F2 8E00        R     MOV     AHT20_READ+02H,R6
00F4 8D00        R     MOV     AHT20_READ+01H,R5
00F6 8C00        R     MOV     AHT20_READ,R4
                                           ; SOURCE LINE # 597
00F8 E500        R     MOV     A,AHT20_READ+0EH
00FA C3                CLR     C
00FB 9407              SUBB    A,#07H
00FD 5011              JNC     ?C0122
                                           ; SOURCE LINE # 598
                                           ; SOURCE LINE # 599
00FF 750009      R     MOV     AHT20_READ+013H,#09H
                                           ; SOURCE LINE # 600
0102 750019      R     MOV     AHT20_READ+012H,#019H
                                           ; SOURCE LINE # 601
0105 7401              MOV     A,#01H
0107 2500        R     ADD     A,AHT20_READ+0DH
0109 F500        R     MOV     AHT20_READ+0DH,A
010B E4                CLR     A
010C 3500        R     ADDC    A,AHT20_READ+0CH
010E F500        R     MOV     AHT20_READ+0CH,A
                                           ; SOURCE LINE # 602
                                           ; SOURCE LINE # 603
                                           ; SOURCE LINE # 604
                                           ; SOURCE LINE # 605
0110         ?C0122:
0110 22                RET     
             ; FUNCTION Platform_Aht20_Standard_IIC_Read_Send_Ack (END)

C51 COMPILER V9.60.7.0   PLATFORM                                                          05/26/2026 10:51:57 PAGE 46  

             ; FUNCTION Platform_Aht20_Standard_IIC_Read_Send_Nack (BEGIN)
                                           ; SOURCE LINE # 607
                                           ; SOURCE LINE # 608
                                           ; SOURCE LINE # 609
0000 120000      R     LCALL   time_get_us
0003 8F00        R     MOV     now+03H,R7
0005 8E00        R     MOV     now+02H,R6
0007 8D00        R     MOV     now+01H,R5
0009 8C00        R     MOV     now,R4
                                           ; SOURCE LINE # 610
000B E500        R     MOV     A,AHT20_READ+012H
000D 24DC              ADD     A,#0DCH
000F 6048              JZ      ?C0126
0011 14                DEC     A
0012 7003              JNZ     $ + 5H
0014 020000      R     LJMP    ?C0128
0017 2402              ADD     A,#02H
0019 6003              JZ      $ + 5H
001B 020000      R     LJMP    ?C0130
                                           ; SOURCE LINE # 611
                                           ; SOURCE LINE # 613
001E         ?C0124:
                                           ; SOURCE LINE # 614
001E C3                CLR     C
001F E500        R     MOV     A,now+03H
0021 9500        R     SUBB    A,AHT20_READ+03H
0023 FF                MOV     R7,A
0024 E500        R     MOV     A,now+02H
0026 9500        R     SUBB    A,AHT20_READ+02H
0028 FE                MOV     R6,A
0029 E500        R     MOV     A,now+01H
002B 9500        R     SUBB    A,AHT20_READ+01H
002D FD                MOV     R5,A
002E E500        R     MOV     A,now
0030 9500        R     SUBB    A,AHT20_READ
0032 FC                MOV     R4,A
0033 E4                CLR     A
0034 7B03              MOV     R3,#03H
0036 FA                MOV     R2,A
0037 F9                MOV     R1,A
0038 F8                MOV     R0,A
0039 D3                SETB    C
003A 120000      E     LCALL   ?C?ULCMP
003D 4003              JC      $ + 5H
003F 020000      R     LJMP    ?C0130
                                           ; SOURCE LINE # 615
                                           ; SOURCE LINE # 616
                                           ; SOURCE LINE # 617
0042 120000      R     LCALL   L?0169
0045 8F00        R     MOV     now+03H,R7
0047 8E00        R     MOV     now+02H,R6
0049 8D00        R     MOV     now+01H,R5
004B 8C00        R     MOV     now,R4
                                           ; SOURCE LINE # 618
004D 8F00        R     MOV     AHT20_READ+03H,R7
004F 8E00        R     MOV     AHT20_READ+02H,R6
0051 8D00        R     MOV     AHT20_READ+01H,R5
0053 8C00        R     MOV     AHT20_READ,R4
                                           ; SOURCE LINE # 619
0055 750024      R     MOV     AHT20_READ+012H,#024H
                                           ; SOURCE LINE # 620
                                           ; SOURCE LINE # 621
C51 COMPILER V9.60.7.0   PLATFORM                                                          05/26/2026 10:51:57 PAGE 47  

0058 22                RET     
                                           ; SOURCE LINE # 623
0059         ?C0126:
                                           ; SOURCE LINE # 624
0059 C3                CLR     C
005A E500        R     MOV     A,now+03H
005C 9500        R     SUBB    A,AHT20_READ+03H
005E FF                MOV     R7,A
005F E500        R     MOV     A,now+02H
0061 9500        R     SUBB    A,AHT20_READ+02H
0063 FE                MOV     R6,A
0064 E500        R     MOV     A,now+01H
0066 9500        R     SUBB    A,AHT20_READ+01H
0068 FD                MOV     R5,A
0069 E500        R     MOV     A,now
006B 9500        R     SUBB    A,AHT20_READ
006D FC                MOV     R4,A
006E E4                CLR     A
006F 7B03              MOV     R3,#03H
0071 FA                MOV     R2,A
0072 F9                MOV     R1,A
0073 F8                MOV     R0,A
0074 D3                SETB    C
0075 120000      E     LCALL   ?C?ULCMP
0078 505A              JNC     ?C0130
                                           ; SOURCE LINE # 625
                                           ; SOURCE LINE # 626
007A 120000      R     LCALL   L?0172
                                           ; SOURCE LINE # 627
007D 120000      R     LCALL   time_get_us
0080 8F00        R     MOV     now+03H,R7
0082 8E00        R     MOV     now+02H,R6
0084 8D00        R     MOV     now+01H,R5
0086 8C00        R     MOV     now,R4
                                           ; SOURCE LINE # 628
0088 8F00        R     MOV     AHT20_READ+03H,R7
008A 8E00        R     MOV     AHT20_READ+02H,R6
008C 8D00        R     MOV     AHT20_READ+01H,R5
008E 8C00        R     MOV     AHT20_READ,R4
                                           ; SOURCE LINE # 629
0090 750025      R     MOV     AHT20_READ+012H,#025H
                                           ; SOURCE LINE # 630
                                           ; SOURCE LINE # 631
0093 22                RET     
                                           ; SOURCE LINE # 633
0094         ?C0128:
                                           ; SOURCE LINE # 634
0094 C3                CLR     C
0095 E500        R     MOV     A,now+03H
0097 9500        R     SUBB    A,AHT20_READ+03H
0099 FF                MOV     R7,A
009A E500        R     MOV     A,now+02H
009C 9500        R     SUBB    A,AHT20_READ+02H
009E FE                MOV     R6,A
009F E500        R     MOV     A,now+01H
00A1 9500        R     SUBB    A,AHT20_READ+01H
00A3 FD                MOV     R5,A
00A4 E500        R     MOV     A,now
00A6 9500        R     SUBB    A,AHT20_READ
00A8 FC                MOV     R4,A
00A9 E4                CLR     A
00AA 7B05              MOV     R3,#05H
C51 COMPILER V9.60.7.0   PLATFORM                                                          05/26/2026 10:51:57 PAGE 48  

00AC FA                MOV     R2,A
00AD F9                MOV     R1,A
00AE F8                MOV     R0,A
00AF D3                SETB    C
00B0 120000      E     LCALL   ?C?ULCMP
00B3 501F              JNC     ?C0130
                                           ; SOURCE LINE # 635
                                           ; SOURCE LINE # 636
00B5 E4                CLR     A
00B6 FD                MOV     R5,A
00B7 FF                MOV     R7,A
00B8 120000      R     LCALL   _GPIO_Set
                                           ; SOURCE LINE # 637
00BB 120000      R     LCALL   time_get_us
00BE 8F00        R     MOV     now+03H,R7
00C0 8E00        R     MOV     now+02H,R6
00C2 8D00        R     MOV     now+01H,R5
00C4 8C00        R     MOV     now,R4
                                           ; SOURCE LINE # 638
00C6 8F00        R     MOV     AHT20_READ+03H,R7
00C8 8E00        R     MOV     AHT20_READ+02H,R6
00CA 8D00        R     MOV     AHT20_READ+01H,R5
00CC 8C00        R     MOV     AHT20_READ,R4
                                           ; SOURCE LINE # 639
00CE 75000D      R     MOV     AHT20_READ+013H,#0DH
                                           ; SOURCE LINE # 640
00D1 75002A      R     MOV     AHT20_READ+012H,#02AH
                                           ; SOURCE LINE # 641
                                           ; SOURCE LINE # 642
                                           ; SOURCE LINE # 643
                                           ; SOURCE LINE # 644
00D4         ?C0130:
00D4 22                RET     
             ; FUNCTION Platform_Aht20_Standard_IIC_Read_Send_Nack (END)

             ; FUNCTION Platform_Aht20_Standard_IIC_Read_Re_Stop (BEGIN)
                                           ; SOURCE LINE # 646
                                           ; SOURCE LINE # 647
                                           ; SOURCE LINE # 648
0000 120000      R     LCALL   time_get_us
0003 8F00        R     MOV     now+03H,R7
0005 8E00        R     MOV     now+02H,R6
0007 8D00        R     MOV     now+01H,R5
0009 8C00        R     MOV     now,R4
                                           ; SOURCE LINE # 649
000B E500        R     MOV     A,AHT20_READ+012H
000D 24D5              ADD     A,#0D5H
000F 6054              JZ      ?C0134
0011 14                DEC     A
0012 7003              JNZ     $ + 5H
0014 020000      R     LJMP    ?C0136
0017 2402              ADD     A,#02H
0019 6003              JZ      $ + 5H
001B 020000      R     LJMP    ?C0138
                                           ; SOURCE LINE # 650
                                           ; SOURCE LINE # 652
001E         ?C0132:
                                           ; SOURCE LINE # 653
001E C3                CLR     C
001F E500        R     MOV     A,now+03H
0021 9500        R     SUBB    A,AHT20_READ+03H
0023 FF                MOV     R7,A
C51 COMPILER V9.60.7.0   PLATFORM                                                          05/26/2026 10:51:57 PAGE 49  

0024 E500        R     MOV     A,now+02H
0026 9500        R     SUBB    A,AHT20_READ+02H
0028 FE                MOV     R6,A
0029 E500        R     MOV     A,now+01H
002B 9500        R     SUBB    A,AHT20_READ+01H
002D FD                MOV     R5,A
002E E500        R     MOV     A,now
0030 9500        R     SUBB    A,AHT20_READ
0032 FC                MOV     R4,A
0033 E4                CLR     A
0034 7B05              MOV     R3,#05H
0036 FA                MOV     R2,A
0037 F9                MOV     R1,A
0038 F8                MOV     R0,A
0039 D3                SETB    C
003A 120000      E     LCALL   ?C?ULCMP
003D 4003              JC      $ + 5H
003F 020000      R     LJMP    ?C0138
                                           ; SOURCE LINE # 654
                                           ; SOURCE LINE # 655
0042 E4                CLR     A
0043 FD                MOV     R5,A
0044 7F01              MOV     R7,#01H
0046 120000      R     LCALL   _GPIO_Set
                                           ; SOURCE LINE # 656
0049 0D                INC     R5
004A 1F                DEC     R7
004B 120000      R     LCALL   _GPIO_Set
                                           ; SOURCE LINE # 657
004E 120000      R     LCALL   time_get_us
0051 8F00        R     MOV     now+03H,R7
0053 8E00        R     MOV     now+02H,R6
0055 8D00        R     MOV     now+01H,R5
0057 8C00        R     MOV     now,R4
                                           ; SOURCE LINE # 658
0059 8F00        R     MOV     AHT20_READ+03H,R7
005B 8E00        R     MOV     AHT20_READ+02H,R6
005D 8D00        R     MOV     AHT20_READ+01H,R5
005F 8C00        R     MOV     AHT20_READ,R4
                                           ; SOURCE LINE # 659
0061 75002B      R     MOV     AHT20_READ+012H,#02BH
                                           ; SOURCE LINE # 660
                                           ; SOURCE LINE # 661
0064 22                RET     
                                           ; SOURCE LINE # 663
0065         ?C0134:
                                           ; SOURCE LINE # 664
0065 C3                CLR     C
0066 E500        R     MOV     A,now+03H
0068 9500        R     SUBB    A,AHT20_READ+03H
006A FF                MOV     R7,A
006B E500        R     MOV     A,now+02H
006D 9500        R     SUBB    A,AHT20_READ+02H
006F FE                MOV     R6,A
0070 E500        R     MOV     A,now+01H
0072 9500        R     SUBB    A,AHT20_READ+01H
0074 FD                MOV     R5,A
0075 E500        R     MOV     A,now
0077 9500        R     SUBB    A,AHT20_READ
0079 FC                MOV     R4,A
007A E4                CLR     A
007B 7B03              MOV     R3,#03H
C51 COMPILER V9.60.7.0   PLATFORM                                                          05/26/2026 10:51:57 PAGE 50  

007D FA                MOV     R2,A
007E F9                MOV     R1,A
007F F8                MOV     R0,A
0080 D3                SETB    C
0081 120000      E     LCALL   ?C?ULCMP
0084 5058              JNC     ?C0138
                                           ; SOURCE LINE # 665
                                           ; SOURCE LINE # 666
                                           ; SOURCE LINE # 667
0086 120000      R     LCALL   L?0169
0089 8F00        R     MOV     now+03H,R7
008B 8E00        R     MOV     now+02H,R6
008D 8D00        R     MOV     now+01H,R5
008F 8C00        R     MOV     now,R4
                                           ; SOURCE LINE # 668
0091 8F00        R     MOV     AHT20_READ+03H,R7
0093 8E00        R     MOV     AHT20_READ+02H,R6
0095 8D00        R     MOV     AHT20_READ+01H,R5
0097 8C00        R     MOV     AHT20_READ,R4
                                           ; SOURCE LINE # 669
0099 75002C      R     MOV     AHT20_READ+012H,#02CH
                                           ; SOURCE LINE # 670
                                           ; SOURCE LINE # 671
009C 22                RET     
                                           ; SOURCE LINE # 673
009D         ?C0136:
                                           ; SOURCE LINE # 674
009D C3                CLR     C
009E E500        R     MOV     A,now+03H
00A0 9500        R     SUBB    A,AHT20_READ+03H
00A2 FF                MOV     R7,A
00A3 E500        R     MOV     A,now+02H
00A5 9500        R     SUBB    A,AHT20_READ+02H
00A7 FE                MOV     R6,A
00A8 E500        R     MOV     A,now+01H
00AA 9500        R     SUBB    A,AHT20_READ+01H
00AC FD                MOV     R5,A
00AD E500        R     MOV     A,now
00AF 9500        R     SUBB    A,AHT20_READ
00B1 FC                MOV     R4,A
00B2 E4                CLR     A
00B3 7B05              MOV     R3,#05H
00B5 FA                MOV     R2,A
00B6 F9                MOV     R1,A
00B7 F8                MOV     R0,A
00B8 D3                SETB    C
00B9 120000      E     LCALL   ?C?ULCMP
00BC 5020              JNC     ?C0138
                                           ; SOURCE LINE # 675
                                           ; SOURCE LINE # 676
00BE 120000      R     LCALL   time_get_us
00C1 8F00        R     MOV     now+03H,R7
00C3 8E00        R     MOV     now+02H,R6
00C5 8D00        R     MOV     now+01H,R5
00C7 8C00        R     MOV     now,R4
                                           ; SOURCE LINE # 677
00C9 8F00        R     MOV     AHT20_READ+03H,R7
00CB 8E00        R     MOV     AHT20_READ+02H,R6
00CD 8D00        R     MOV     AHT20_READ+01H,R5
00CF 8C00        R     MOV     AHT20_READ,R4
                                           ; SOURCE LINE # 678
00D1 E4                CLR     A
C51 COMPILER V9.60.7.0   PLATFORM                                                          05/26/2026 10:51:57 PAGE 51  

00D2 F500        R     MOV     AHT20_READ+0EH,A
                                           ; SOURCE LINE # 679
00D4 F500        R     MOV     AHT20_READ+0FH,A
                                           ; SOURCE LINE # 680
00D6 F500        R     MOV     AHT20_READ+013H,A
                                           ; SOURCE LINE # 681
00D8 750001      R     MOV     AHT20_READ+012H,#01H
                                           ; SOURCE LINE # 682
00DB 750001      R     MOV     AHT20_READ+011H,#01H
                                           ; SOURCE LINE # 683
                                           ; SOURCE LINE # 684
                                           ; SOURCE LINE # 685
                                           ; SOURCE LINE # 686
00DE         ?C0138:
00DE 22                RET     
             ; FUNCTION Platform_Aht20_Standard_IIC_Read_Re_Stop (END)

             ; FUNCTION Platform_Aht20_Standard_IIC_Read_Task (BEGIN)
                                           ; SOURCE LINE # 691
                                           ; SOURCE LINE # 692
                                           ; SOURCE LINE # 693
0000 E500        R     MOV     A,AHT20_READ+013H
0002 14                DEC     A
0003 B40D00            CJNE    A,#0DH,?C0163
0006         ?C0163:
0006 5059              JNC     ?C0141
0008 900000      R     MOV     DPTR,#?C0164
000B 75F003            MOV     B,#03H
000E A4                MUL     AB
000F C583              XCH     A,DPH
0011 25F0              ADD     A,B
0013 C583              XCH     A,DPH
0015 73                JMP     @A+DPTR
0016         ?C0164:
0016 020000      R     LJMP    ?C0142
0019 020000      R     LJMP    ?C0143
001C 020000      R     LJMP    ?C0144
001F 020000      R     LJMP    ?C0145
0022 020000      R     LJMP    ?C0146
0025 020000      R     LJMP    ?C0147
0028 020000      R     LJMP    ?C0148
002B 020000      R     LJMP    ?C0149
002E 020000      R     LJMP    ?C0150
0031 020000      R     LJMP    ?C0141
0034 020000      R     LJMP    ?C0151
0037 020000      R     LJMP    ?C0152
003A 020000      R     LJMP    ?C0153
                                           ; SOURCE LINE # 694
                                           ; SOURCE LINE # 695
                                           ; SOURCE LINE # 697
                                           ; SOURCE LINE # 699
003D         ?C0142:
                                           ; SOURCE LINE # 700
003D 020000      R     LJMP    Platform_Aht20_Standard_IIC_Read_Start
                                           ; SOURCE LINE # 701
                                           ; SOURCE LINE # 703
0040         ?C0143:
                                           ; SOURCE LINE # 704
0040 020000      R     LJMP    Platform_Aht20_Standard_IIC_Read_Devidce_And_Word_Address
                                           ; SOURCE LINE # 705
                                           ; SOURCE LINE # 707
0043         ?C0144:
C51 COMPILER V9.60.7.0   PLATFORM                                                          05/26/2026 10:51:57 PAGE 52  

                                           ; SOURCE LINE # 708
0043 020000      R     LJMP    Platform_Aht20_Standard_IIC_Read_Receive_Ack
                                           ; SOURCE LINE # 709
                                           ; SOURCE LINE # 711
0046         ?C0145:
                                           ; SOURCE LINE # 712
0046 020000      R     LJMP    Platform_Aht20_Standard_IIC_Read_Stop
                                           ; SOURCE LINE # 713
                                           ; SOURCE LINE # 715
0049         ?C0146:
                                           ; SOURCE LINE # 716
0049 020000      R     LJMP    Platform_Aht20_Standard_IIC_Read_Wait
                                           ; SOURCE LINE # 717
                                           ; SOURCE LINE # 719
004C         ?C0147:
                                           ; SOURCE LINE # 720
004C 020000      R     LJMP    Platform_Aht20_Standard_IIC_Read_Re_Start
                                           ; SOURCE LINE # 721
                                           ; SOURCE LINE # 723
004F         ?C0148:
                                           ; SOURCE LINE # 724
004F 020000      R     LJMP    Platform_Aht20_Standard_IIC_Read_Re_Send_Address
                                           ; SOURCE LINE # 725
                                           ; SOURCE LINE # 727
0052         ?C0149:
                                           ; SOURCE LINE # 728
0052 020000      R     LJMP    Platform_Aht20_Standard_IIC_Read_Re_Receive_Ack
                                           ; SOURCE LINE # 729
                                           ; SOURCE LINE # 731
0055         ?C0150:
                                           ; SOURCE LINE # 732
0055 020000      R     LJMP    Platform_Aht20_Standard_IIC_Read_Receive_Data
                                           ; SOURCE LINE # 733
                                           ; SOURCE LINE # 735
0058         ?C0151:
                                           ; SOURCE LINE # 736
0058 020000      R     LJMP    Platform_Aht20_Standard_IIC_Read_Send_Ack
                                           ; SOURCE LINE # 737
                                           ; SOURCE LINE # 739
005B         ?C0152:
                                           ; SOURCE LINE # 740
005B 020000      R     LJMP    Platform_Aht20_Standard_IIC_Read_Send_Nack
                                           ; SOURCE LINE # 741
                                           ; SOURCE LINE # 743
005E         ?C0153:
                                           ; SOURCE LINE # 744
005E 120000      R     LCALL   Platform_Aht20_Standard_IIC_Read_Re_Stop
                                           ; SOURCE LINE # 745
                                           ; SOURCE LINE # 749
                                           ; SOURCE LINE # 750
0061         ?C0141:
0061 22                RET     
             ; FUNCTION Platform_Aht20_Standard_IIC_Read_Task (END)

             ; FUNCTION Platform_Aht20_Standard_IIC_Read_Complete_Flag (BEGIN)
                                           ; SOURCE LINE # 752
                                           ; SOURCE LINE # 753
                                           ; SOURCE LINE # 754
0000 AF00        R     MOV     R7,AHT20_READ+011H
                                           ; SOURCE LINE # 755
0002 22                RET     
             ; FUNCTION Platform_Aht20_Standard_IIC_Read_Complete_Flag (END)
C51 COMPILER V9.60.7.0   PLATFORM                                                          05/26/2026 10:51:57 PAGE 53  


             ; FUNCTION Platform_Aht20_Standard_IIC_Read_Complete_Flag_Clear (BEGIN)
                                           ; SOURCE LINE # 757
                                           ; SOURCE LINE # 758
                                           ; SOURCE LINE # 759
0000 E4                CLR     A
0001 F500        R     MOV     AHT20_READ+011H,A
                                           ; SOURCE LINE # 760
0003 AF00        R     MOV     R7,AHT20_READ+011H
                                           ; SOURCE LINE # 761
0005 22                RET     
             ; FUNCTION Platform_Aht20_Standard_IIC_Read_Complete_Flag_Clear (END)

C51 COMPILER V9.60.7.0   PLATFORM                                                          05/26/2026 10:51:57 PAGE 54  

NAME                                    CLASS   MSPACE  TYPE    OFFSET  SIZE
====                                    =====   ======  ====    ======  ====


READ_I2C_START_STEP3 . . . . . . . . .  E_CONST  -----  U_CHAR   -----  1
P0 . . . . . . . . . . . . . . . . . .  SFR      DATA   U_CHAR   0080H  1
P1 . . . . . . . . . . . . . . . . . .  SFR      DATA   U_CHAR   0090H  1
READ_I2C_SEND_ADDRESS_STEP1. . . . . .  E_CONST  -----  U_CHAR   -----  1
P2 . . . . . . . . . . . . . . . . . .  SFR      DATA   U_CHAR   00A0H  1
READ_I2C_EVENT_RE_ADDRESS. . . . . . .  E_CONST  -----  U_CHAR   -----  1
READ_I2C_SEND_ADDRESS_STEP2. . . . . .  E_CONST  -----  U_CHAR   -----  1
P3 . . . . . . . . . . . . . . . . . .  SFR      DATA   U_CHAR   00B0H  1
Timer0_ISR . . . . . . . . . . . . . .  PUBLIC   CODE   PROC     0000H  -----
_Platform_Aht20_Standard_IIC_Read_Addr  PUBLIC   CODE   PROC     0000H  -----
  adress . . . . . . . . . . . . . . .  AUTO     DATA   PTR      0001H  3
  re_adress. . . . . . . . . . . . . .  AUTO     DATA   PTR      0003H  3
  dat. . . . . . . . . . . . . . . . .  AUTO     DATA   PTR      0006H  3
READ_I2C_EVENT_RECEIVE_DATA. . . . . .  E_CONST  -----  U_CHAR   -----  1
READ_I2C_SEND_ADDRESS_STEP3. . . . . .  E_CONST  -----  U_CHAR   -----  1
T0 . . . . . . . . . . . . . . . . . .  ABSBIT   -----  BIT      00B4H  1
AC . . . . . . . . . . . . . . . . . .  ABSBIT   -----  BIT      00D6H  1
READ_I2C_SEND_ADDRESS_STEP4. . . . . .  E_CONST  -----  U_CHAR   -----  1
T1 . . . . . . . . . . . . . . . . . .  ABSBIT   -----  BIT      00B5H  1
T2 . . . . . . . . . . . . . . . . . .  ABSBIT   -----  BIT      0090H  1
EA . . . . . . . . . . . . . . . . . .  ABSBIT   -----  BIT      00AFH  1
Platform_Aht20_Standard_IIC_Read_Re_Se  PUBLIC   CODE   PROC     0000H  -----
Platform_Aht20_Standard_IIC_Read_Re_Re  PUBLIC   CODE   PROC     0000H  -----
READ_I2C_EVENT_RE_START. . . . . . . .  E_CONST  -----  U_CHAR   -----  1
READ_I2C_EVENT_ADDRESS . . . . . . . .  E_CONST  -----  U_CHAR   -----  1
IE . . . . . . . . . . . . . . . . . .  SFR      DATA   U_CHAR   00A8H  1
Platform_Aht20_Standard_IIC_Read_Devid  PUBLIC   CODE   PROC     0000H  -----
READ_I2C_EVENT_START . . . . . . . . .  E_CONST  -----  U_CHAR   -----  1
IO_BEEP. . . . . . . . . . . . . . . .  ABSBIT   -----  BIT      0095H  1
EXF2 . . . . . . . . . . . . . . . . .  ABSBIT   -----  BIT      00CEH  1
RD . . . . . . . . . . . . . . . . . .  ABSBIT   -----  BIT      00B7H  1
READ_I2C_SEND_NACK_STEP1 . . . . . . .  E_CONST  -----  U_CHAR   -----  1
READ_I2C_SEND_NACK_STEP2 . . . . . . .  E_CONST  -----  U_CHAR   -----  1
ES . . . . . . . . . . . . . . . . . .  ABSBIT   -----  BIT      00ACH  1
READ_I2C_SEND_NACK_STEP3 . . . . . . .  E_CONST  -----  U_CHAR   -----  1
IP . . . . . . . . . . . . . . . . . .  SFR      DATA   U_CHAR   00B8H  1
Aht20_I2C_Read_State_Typedef . . . . .  TYPEDEF  -----  U_CHAR   -----  1
READ_I2C_SEND_NACK_STEP4 . . . . . . .  E_CONST  -----  U_CHAR   -----  1
Aht20_I2C_Read_Event_Typedef . . . . .  TYPEDEF  -----  U_CHAR   -----  1
READ_I2C_RE_RECEIVE_ACK_STEP1. . . . .  E_CONST  -----  U_CHAR   -----  1
RI . . . . . . . . . . . . . . . . . .  ABSBIT   -----  BIT      0098H  1
READ_I2C_RE_RECEIVE_ACK_STEP2. . . . .  E_CONST  -----  U_CHAR   -----  1
INT0 . . . . . . . . . . . . . . . . .  ABSBIT   -----  BIT      00B2H  1
CY . . . . . . . . . . . . . . . . . .  ABSBIT   -----  BIT      00D7H  1
time_get_us. . . . . . . . . . . . . .  PUBLIC   CODE   PROC     0007H  -----
READ_I2C_RE_RECEIVE_ACK_STEP3. . . . .  E_CONST  -----  U_CHAR   -----  1
TI . . . . . . . . . . . . . . . . . .  ABSBIT   -----  BIT      0099H  1
INT1 . . . . . . . . . . . . . . . . .  ABSBIT   -----  BIT      00B3H  1
Platform_Aht20_Standard_IIC_Read_Compl  PUBLIC   CODE   PROC     0000H  -----
READ_I2C_EVENT_IDLE. . . . . . . . . .  E_CONST  -----  U_CHAR   -----  1
PIN_SDA. . . . . . . . . . . . . . . .  E_CONST  -----  U_CHAR   -----  1
RCAP2H . . . . . . . . . . . . . . . .  SFR      DATA   U_CHAR   00CBH  1
READ_I2C_WAIT_STEP1. . . . . . . . . .  E_CONST  -----  U_CHAR   -----  1
READ_I2C_RECEIVE_ACK_STEP1 . . . . . .  E_CONST  -----  U_CHAR   -----  1
PS . . . . . . . . . . . . . . . . . .  ABSBIT   -----  BIT      00BCH  1
SP . . . . . . . . . . . . . . . . . .  SFR      DATA   U_CHAR   0081H  1
READ_I2C_RECEIVE_ACK_STEP2 . . . . . .  E_CONST  -----  U_CHAR   -----  1
C51 COMPILER V9.60.7.0   PLATFORM                                                          05/26/2026 10:51:57 PAGE 55  

NAME                                    CLASS   MSPACE  TYPE    OFFSET  SIZE
====                                    =====   ======  ====    ======  ====


T2EX . . . . . . . . . . . . . . . . .  ABSBIT   -----  BIT      0091H  1
Platform_Aht20_Standard_IIC_Read_Send_  PUBLIC   CODE   PROC     0000H  -----
READ_I2C_RECEIVE_ACK_STEP3 . . . . . .  E_CONST  -----  U_CHAR   -----  1
OV . . . . . . . . . . . . . . . . . .  ABSBIT   -----  BIT      00D2H  1
RCAP2L . . . . . . . . . . . . . . . .  SFR      DATA   U_CHAR   00CAH  1
C_T2 . . . . . . . . . . . . . . . . .  ABSBIT   -----  BIT      00C9H  1
WR . . . . . . . . . . . . . . . . . .  ABSBIT   -----  BIT      00B6H  1
PIN_SCL. . . . . . . . . . . . . . . .  E_CONST  -----  U_CHAR   -----  1
READ_I2C_RE_STOP_STEP1 . . . . . . . .  E_CONST  -----  U_CHAR   -----  1
Pin_ID_TypeDef . . . . . . . . . . . .  TYPEDEF  -----  U_CHAR   -----  1
READ_I2C_RE_STOP_STEP2 . . . . . . . .  E_CONST  -----  U_CHAR   -----  1
RCLK . . . . . . . . . . . . . . . . .  ABSBIT   -----  BIT      00CDH  1
READ_I2C_RE_STOP_STEP3 . . . . . . . .  E_CONST  -----  U_CHAR   -----  1
TCLK . . . . . . . . . . . . . . . . .  ABSBIT   -----  BIT      00CCH  1
READ_I2C_EVENT_RE_RECEIVE_ACK. . . . .  E_CONST  -----  U_CHAR   -----  1
SBUF . . . . . . . . . . . . . . . . .  SFR      DATA   U_CHAR   0099H  1
PCON . . . . . . . . . . . . . . . . .  SFR      DATA   U_CHAR   0087H  1
_GPIO_Get. . . . . . . . . . . . . . .  PUBLIC   CODE   PROC     0000H  -----
  pin. . . . . . . . . . . . . . . . .  * REG *  DATA   U_CHAR   0007H  1
READ_I2C_STOP_STEP1. . . . . . . . . .  E_CONST  -----  U_CHAR   -----  1
SCON . . . . . . . . . . . . . . . . .  SFR      DATA   U_CHAR   0098H  1
READ_I2C_STOP_STEP2. . . . . . . . . .  E_CONST  -----  U_CHAR   -----  1
TMOD . . . . . . . . . . . . . . . . .  SFR      DATA   U_CHAR   0089H  1
TCON . . . . . . . . . . . . . . . . .  SFR      DATA   U_CHAR   0088H  1
Platform_Aht20_Standard_IIC_Read_Send_  PUBLIC   CODE   PROC     0000H  -----
READ_I2C_STOP_STEP3. . . . . . . . . .  E_CONST  -----  U_CHAR   -----  1
READ_I2C_EVENT_WAIT. . . . . . . . . .  E_CONST  -----  U_CHAR   -----  1
READ_I2C_EVENT_RECEIVE_ACK . . . . . .  E_CONST  -----  U_CHAR   -----  1
READ_I2C_IDLE. . . . . . . . . . . . .  E_CONST  -----  U_CHAR   -----  1
AHT20_READ . . . . . . . . . . . . . .  STATIC   DATA   STRUCT   0000H  20
_GPIO_Set. . . . . . . . . . . . . . .  PUBLIC   CODE   PROC     0004H  -----
  pin. . . . . . . . . . . . . . . . .  * REG *  DATA   U_CHAR   0007H  1
  state. . . . . . . . . . . . . . . .  * REG *  DATA   U_CHAR   0005H  1
IE0. . . . . . . . . . . . . . . . . .  ABSBIT   -----  BIT      0089H  1
IE1. . . . . . . . . . . . . . . . . .  ABSBIT   -----  BIT      008BH  1
READ_I2C_EVENT_RE_STOP . . . . . . . .  E_CONST  -----  U_CHAR   -----  1
READ_I2C_EVENT_RECEIVE_CRC . . . . . .  E_CONST  -----  U_CHAR   -----  1
B. . . . . . . . . . . . . . . . . . .  SFR      DATA   U_CHAR   00F0H  1
CP_RL2 . . . . . . . . . . . . . . . .  ABSBIT   -----  BIT      00C8H  1
READ_I2C_SEND_ACK_STEP0. . . . . . . .  E_CONST  -----  U_CHAR   -----  1
ACC. . . . . . . . . . . . . . . . . .  SFR      DATA   U_CHAR   00E0H  1
READ_I2C_SEND_ACK_STEP1. . . . . . . .  E_CONST  -----  U_CHAR   -----  1
READ_I2C_EVENT_STOP. . . . . . . . . .  E_CONST  -----  U_CHAR   -----  1
READ_I2C_SEND_ACK_STEP2. . . . . . . .  E_CONST  -----  U_CHAR   -----  1
ET0. . . . . . . . . . . . . . . . . .  ABSBIT   -----  BIT      00A9H  1
Platform_Aht20_Standard_IIC_Read_Start  PUBLIC   CODE   PROC     0000H  -----
READ_I2C_EVENT_SEND_NACK_STEP. . . . .  E_CONST  -----  U_CHAR   -----  1
READ_I2C_SEND_ACK_STEP3. . . . . . . .  E_CONST  -----  U_CHAR   -----  1
ET1. . . . . . . . . . . . . . . . . .  ABSBIT   -----  BIT      00ABH  1
TF0. . . . . . . . . . . . . . . . . .  ABSBIT   -----  BIT      008DH  1
READ_I2C_SEND_ACK_STEP4. . . . . . . .  E_CONST  -----  U_CHAR   -----  1
ET2. . . . . . . . . . . . . . . . . .  ABSBIT   -----  BIT      00ADH  1
TF1. . . . . . . . . . . . . . . . . .  ABSBIT   -----  BIT      008FH  1
READ_I2C_SEND_ACK_STEP5. . . . . . . .  E_CONST  -----  U_CHAR   -----  1
TF2. . . . . . . . . . . . . . . . . .  ABSBIT   -----  BIT      00CFH  1
RB8. . . . . . . . . . . . . . . . . .  ABSBIT   -----  BIT      009AH  1
TH0. . . . . . . . . . . . . . . . . .  SFR      DATA   U_CHAR   008CH  1
C51 COMPILER V9.60.7.0   PLATFORM                                                          05/26/2026 10:51:57 PAGE 56  

NAME                                    CLASS   MSPACE  TYPE    OFFSET  SIZE
====                                    =====   ======  ====    ======  ====


EX0. . . . . . . . . . . . . . . . . .  ABSBIT   -----  BIT      00A8H  1
IT0. . . . . . . . . . . . . . . . . .  ABSBIT   -----  BIT      0088H  1
TH1. . . . . . . . . . . . . . . . . .  SFR      DATA   U_CHAR   008DH  1
Platform_Aht20_Standard_IIC_Read_Task.  PUBLIC   CODE   PROC     0000H  -----
TB8. . . . . . . . . . . . . . . . . .  ABSBIT   -----  BIT      009BH  1
EX1. . . . . . . . . . . . . . . . . .  ABSBIT   -----  BIT      00AAH  1
IT1. . . . . . . . . . . . . . . . . .  ABSBIT   -----  BIT      008AH  1
TH2. . . . . . . . . . . . . . . . . .  SFR      DATA   U_CHAR   00CDH  1
P. . . . . . . . . . . . . . . . . . .  ABSBIT   -----  BIT      00D0H  1
Platform_Aht20_Standard_IIC_Read_Wait.  PUBLIC   CODE   PROC     0000H  -----
SM0. . . . . . . . . . . . . . . . . .  ABSBIT   -----  BIT      009FH  1
TL0. . . . . . . . . . . . . . . . . .  SFR      DATA   U_CHAR   008AH  1
IO_SDA . . . . . . . . . . . . . . . .  ABSBIT   -----  BIT      0091H  1
SM1. . . . . . . . . . . . . . . . . .  ABSBIT   -----  BIT      009EH  1
TL1. . . . . . . . . . . . . . . . . .  SFR      DATA   U_CHAR   008BH  1
SM2. . . . . . . . . . . . . . . . . .  ABSBIT   -----  BIT      009DH  1
TL2. . . . . . . . . . . . . . . . . .  SFR      DATA   U_CHAR   00CCH  1
_delay_ms. . . . . . . . . . . . . . .  PUBLIC   CODE   PROC     0000H  -----
  ms . . . . . . . . . . . . . . . . .  * REG *  DATA   U_INT    0006H  2
  i. . . . . . . . . . . . . . . . . .  * REG *  DATA   U_INT    0004H  2
  j. . . . . . . . . . . . . . . . . .  * REG *  DATA   U_INT    0002H  2
Platform_Aht20_Standard_IIC_Read_Compl  PUBLIC   CODE   PROC     0000H  -----
PT0. . . . . . . . . . . . . . . . . .  ABSBIT   -----  BIT      00B9H  1
now. . . . . . . . . . . . . . . . . .  PUBLIC   DATA   U_LONG   0014H  4
PT1. . . . . . . . . . . . . . . . . .  ABSBIT   -----  BIT      00BBH  1
RS0. . . . . . . . . . . . . . . . . .  ABSBIT   -----  BIT      00D3H  1
AHT20_TypeDef. . . . . . . . . . . . .  TYPEDEF  -----  STRUCT   -----  20
  IIC_Wait_Tick. . . . . . . . . . . .  MEMBER   -----  U_LONG   0000H  4
  IIC_Rx_Buffer. . . . . . . . . . . .  MEMBER   -----  U_CHAR   0004H  1
  IIC_Rx_Adress. . . . . . . . . . . .  MEMBER   -----  PTR      0005H  3
  IIC_Rx_Re_Adress . . . . . . . . . .  MEMBER   -----  PTR      0008H  3
  IIC_Rx_Data. . . . . . . . . . . . .  MEMBER   -----  PTR      000BH  3
  IIC_Rx_Buffer_Long . . . . . . . . .  MEMBER   -----  U_CHAR   000EH  1
  IIC_Bit_Cnt. . . . . . . . . . . . .  MEMBER   -----  U_CHAR   000FH  1
  ack. . . . . . . . . . . . . . . . .  MEMBER   -----  U_CHAR   0010H  1
  IIC_Read_Complete. . . . . . . . . .  MEMBER   -----  U_CHAR   0011H  1
  Read_State . . . . . . . . . . . . .  MEMBER   -----  U_CHAR   0012H  1
  Read_Event . . . . . . . . . . . . .  MEMBER   -----  U_CHAR   0013H  1
PT2. . . . . . . . . . . . . . . . . .  ABSBIT   -----  BIT      00BDH  1
TR0. . . . . . . . . . . . . . . . . .  ABSBIT   -----  BIT      008CH  1
RS1. . . . . . . . . . . . . . . . . .  ABSBIT   -----  BIT      00D4H  1
TR1. . . . . . . . . . . . . . . . . .  ABSBIT   -----  BIT      008EH  1
TR2. . . . . . . . . . . . . . . . . .  ABSBIT   -----  BIT      00CAH  1
PX0. . . . . . . . . . . . . . . . . .  ABSBIT   -----  BIT      00B8H  1
PX1. . . . . . . . . . . . . . . . . .  ABSBIT   -----  BIT      00BAH  1
Timer0_SysTick_Init. . . . . . . . . .  PUBLIC   CODE   PROC     0000H  -----
IO_SCL . . . . . . . . . . . . . . . .  ABSBIT   -----  BIT      0090H  1
DPH. . . . . . . . . . . . . . . . . .  SFR      DATA   U_CHAR   0083H  1
Platform_Aht20_Standard_IIC_Read_Recei  PUBLIC   CODE   PROC     0000H  -----
READ_I2C_EVENT_SEND_ACK. . . . . . . .  E_CONST  -----  U_CHAR   -----  1
Platform_UART_Init . . . . . . . . . .  PUBLIC   CODE   PROC     0000H  -----
DPL. . . . . . . . . . . . . . . . . .  SFR      DATA   U_CHAR   0082H  1
Platform_Aht20_Standard_IIC_Read_Stop.  PUBLIC   CODE   PROC     0000H  -----
Platform_Aht20_Standard_IIC_Read_Re_St  PUBLIC   CODE   PROC     0000H  -----
EXEN2. . . . . . . . . . . . . . . . .  ABSBIT   -----  BIT      00CBH  1
PIN_BEEP . . . . . . . . . . . . . . .  E_CONST  -----  U_CHAR   -----  1
REN. . . . . . . . . . . . . . . . . .  ABSBIT   -----  BIT      009CH  1
C51 COMPILER V9.60.7.0   PLATFORM                                                          05/26/2026 10:51:57 PAGE 57  

NAME                                    CLASS   MSPACE  TYPE    OFFSET  SIZE
====                                    =====   ======  ====    ======  ====


T2CON. . . . . . . . . . . . . . . . .  SFR      DATA   U_CHAR   00C8H  1
READ_I2C_RECEIVE_DATA_STEP0. . . . . .  E_CONST  -----  U_CHAR   -----  1
READ_I2C_RECEIVE_DATA_STEP1. . . . . .  E_CONST  -----  U_CHAR   -----  1
RXD. . . . . . . . . . . . . . . . . .  ABSBIT   -----  BIT      00B0H  1
READ_I2C_RECEIVE_DATA_STEP2. . . . . .  E_CONST  -----  U_CHAR   -----  1
_Platform_UART_Send_Str. . . . . . . .  PUBLIC   CODE   PROC     0000H  -----
  str. . . . . . . . . . . . . . . . .  AUTO     DATA   PTR      0000H  3
  len. . . . . . . . . . . . . . . . .  * REG *  DATA   U_CHAR   0005H  1
READ_I2C_RECEIVE_DATA_STEP3. . . . . .  E_CONST  -----  U_CHAR   -----  1
TXD. . . . . . . . . . . . . . . . . .  ABSBIT   -----  BIT      00B1H  1
Platform_Aht20_Standard_IIC_Read_Recei  PUBLIC   CODE   PROC     0000H  -----
READ_I2C_RE_START_STEP1. . . . . . . .  E_CONST  -----  U_CHAR   -----  1
READ_I2C_RE_START_STEP2. . . . . . . .  E_CONST  -----  U_CHAR   -----  1
F0 . . . . . . . . . . . . . . . . . .  ABSBIT   -----  BIT      00D5H  1
System_Tick. . . . . . . . . . . . . .  PUBLIC   DATA   U_LONG   0018H  4
READ_I2C_RE_START_STEP3. . . . . . . .  E_CONST  -----  U_CHAR   -----  1
READ_I2C_RE_START_STEP4. . . . . . . .  E_CONST  -----  U_CHAR   -----  1
READ_I2C_RE_START_STEP5. . . . . . . .  E_CONST  -----  U_CHAR   -----  1
Platform_Aht20_Standard_IIC_Read_Re_StopPUBLIC   CODE   PROC     0000H  -----
READ_I2C_RE_SEND_ADDRESS_STEP1 . . . .  E_CONST  -----  U_CHAR   -----  1
READ_I2C_RE_SEND_ADDRESS_STEP2 . . . .  E_CONST  -----  U_CHAR   -----  1
PSW. . . . . . . . . . . . . . . . . .  SFR      DATA   U_CHAR   00D0H  1
READ_I2C_RE_SEND_ADDRESS_STEP3 . . . .  E_CONST  -----  U_CHAR   -----  1
READ_I2C_RE_SEND_ADDRESS_STEP4 . . . .  E_CONST  -----  U_CHAR   -----  1
READ_I2C_START_STEP1 . . . . . . . . .  E_CONST  -----  U_CHAR   -----  1
READ_I2C_RE_SEND_ADDRESS_STEP5 . . . .  E_CONST  -----  U_CHAR   -----  1
READ_I2C_START_STEP2 . . . . . . . . .  E_CONST  -----  U_CHAR   -----  1


MODULE INFORMATION:   STATIC OVERLAYABLE
   CODE SIZE        =   3039    ----
   CONSTANT SIZE    =   ----    ----
   XDATA SIZE       =   ----    ----
   PDATA SIZE       =   ----    ----
   DATA SIZE        =     28      12
   IDATA SIZE       =   ----    ----
   BIT SIZE         =   ----    ----
   EDATA SIZE       =   ----    ----
   HDATA SIZE       =   ----    ----
   XDATA CONST SIZE =   ----    ----
   FAR CONST SIZE   =   ----    ----
END OF MODULE INFORMATION.


C51 COMPILATION COMPLETE.  0 WARNING(S),  0 ERROR(S)
