LX51 LINKER/LOCATER V4.66.100.0                                                         05/26/2026  10:51:57  PAGE 1


LX51 LINKER/LOCATER V4.66.100.0, INVOKED BY:
E:\51\C51\BIN\LX51.EXE .\build\Target 1\.obj\AHT20.o, .\build\Target 1\.obj\PLATFORM.o, .\build\Target 1\.obj\STARTUP.o,
>>  .\build\Target 1\.obj\UART.o, .\build\Target 1\.obj\main.o TO .\build\Target 1\AHT20_Measure PRINT (.\build\Target 1
>> \AHT20_Measure.map) REMOVEUNUSED


CPU MODE:     8051 MODE
MEMORY MODEL: SMALL


INPUT MODULES INCLUDED:
  .\build\Target 1\.obj\AHT20.o (AHT20)
         COMMENT TYPE 0: C51 V9.60.7.0
  .\build\Target 1\.obj\PLATFORM.o (PLATFORM)
         COMMENT TYPE 0: C51 V9.60.7.0
  .\build\Target 1\.obj\STARTUP.o (?C_STARTUP)
         COMMENT TYPE 1: A51 / ASM51 Assembler
  .\build\Target 1\.obj\UART.o (UART)
         COMMENT TYPE 0: C51 V9.60.7.0
  .\build\Target 1\.obj\main.o (MAIN)
         COMMENT TYPE 0: C51 V9.60.7.0
  E:\51\C51\LIB\C51S.LIB (?C_INIT)
         COMMENT TYPE 1: A51 / ASM51 Assembler
  E:\51\C51\LIB\C51S.LIB (?C?CLDPTR)
         COMMENT TYPE 1: A51 / ASM51 Assembler
  E:\51\C51\LIB\C51S.LIB (?C?CSTPTR)
         COMMENT TYPE 1: A51 / ASM51 Assembler
  E:\51\C51\LIB\C51S.LIB (?C?ULCMP)
         COMMENT TYPE 1: A51 / ASM51 Assembler
  E:\51\C51\LIB\C51S.LIB (?C?ICALL)
         COMMENT TYPE 1: A51 / ASM51 Assembler
  E:\51\C51\LIB\C51S.LIB (?C_IBP)
         COMMENT TYPE 1: A51 / ASM51 Assembler


ACTIVE MEMORY CLASSES OF MODULE:  .\build\Target 1\AHT20_Measure (AHT20)

BASE        START       END         USED      MEMORY CLASS
==========================================================
C:000000H   C:000000H   C:00FFFFH   000E36H   CODE
I:000000H   I:000000H   I:00007FH   00004FH   DATA
I:000000H   I:000000H   I:0000FFH   000001H   IDATA
I:000020H.0 I:000020H.0 I:00002FH.7 000000H.1 BIT


MEMORY MAP OF MODULE:  .\build\Target 1\AHT20_Measure (AHT20)


START     STOP      LENGTH    ALIGN  RELOC    MEMORY CLASS   SEGMENT NAME
=========================================================================

* * * * * * * * * * *   D A T A   M E M O R Y   * * * * * * * * * * * * *
000000H   000007H   000008H   ---    AT..     DATA           "REG BANK 0"
000008H   000017H   000010H   BYTE   UNIT     DATA           ?DT?MAIN
000018H   00001DH   000006H   BYTE   UNIT     DATA           ?DT?AHT20
00001EH   00001EH   000001H   BYTE   UNIT     DATA           ?C?LIB_DATA
00001FH.0 00001FH.7 000001H.0 ---    ---      **GAP**
000020H.0 000020H.0 000000H.1 BIT    UNIT     BIT            ?BI?UART
000020H.1 000020H   000000H.7 ---    ---      **GAP**
000021H   00003CH   00001CH   BYTE   UNIT     DATA           ?DT?PLATFORM
00003DH   000047H   00000BH   BYTE   UNIT     DATA           ?DT?UART
000048H   000050H   000009H   BYTE   UNIT     DATA           _DATA_GROUP_
000051H   000051H   000001H   BYTE   UNIT     IDATA          ?STACK

* * * * * * * * * * *   C O D E   M E M O R Y   * * * * * * * * * * * * *
000000H   000002H   000003H   ---    OFFS..   CODE           ?CO??C_STARTUP?0
LX51 LINKER/LOCATER V4.66.100.0                                                       05/26/2026  10:51:57  PAGE 2


000003H   000009H   000007H   BYTE   UNIT     CODE           ?PR?APPLICATION_AHT20_STANDARD_IIC_READ_TASK?AHT20
00000AH   00000AH   000001H   ---    ---      **GAP**
00000BH   00000DH   000003H   BYTE   OFFS..   CODE           ?PLATFORM?0000B
00000EH   000020H   000013H   BYTE   UNIT     CODE           ?PR?PLATFORM_UART_INIT?PLATFORM
000021H   000022H   000002H   ---    ---      **GAP**
000023H   000025H   000003H   BYTE   OFFS..   CODE           ?UART?00023
000026H   000143H   00011EH   BYTE   UNIT     CODE           ?PR?PLATFORM_AHT20_STANDARD_IIC_READ_DEVIDCE_AND_WORD_ADDR
                                                             -ESS?PLATFORM
000144H   000261H   00011EH   BYTE   UNIT     CODE           ?PR?PLATFORM_AHT20_STANDARD_IIC_READ_RE_SEND_ADDRESS?PLATF
                                                             -ORM
000262H   000372H   000111H   BYTE   UNIT     CODE           ?PR?PLATFORM_AHT20_STANDARD_IIC_READ_SEND_ACK?PLATFORM
000373H   00047DH   00010BH   BYTE   UNIT     CODE           ?PR?PLATFORM_AHT20_STANDARD_IIC_READ_RECEIVE_ACK?PLATFORM
00047EH   00057FH   000102H   BYTE   UNIT     CODE           ?PR?PLATFORM_AHT20_STANDARD_IIC_READ_RECEIVE_DATA?PLATFORM
000580H   000668H   0000E9H   BYTE   UNIT     CODE           ?PR?PLATFORM_AHT20_STANDARD_IIC_READ_RE_RECEIVE_ACK?PLATFO
                                                             -RM
000669H   000747H   0000DFH   BYTE   UNIT     CODE           ?PR?PLATFORM_AHT20_STANDARD_IIC_READ_RE_STOP?PLATFORM
000748H   00081FH   0000D8H   BYTE   UNIT     CODE           ?PR?PLATFORM_AHT20_STANDARD_IIC_READ_STOP?PLATFORM
000820H   0008F4H   0000D5H   BYTE   UNIT     CODE           ?PR?PLATFORM_AHT20_STANDARD_IIC_READ_SEND_NACK?PLATFORM
0008F5H   00099CH   0000A8H   BYTE   UNIT     CODE           ?PR?PLATFORM_AHT20_STANDARD_IIC_READ_START?PLATFORM
00099DH   000A44H   0000A8H   BYTE   UNIT     CODE           ?PR?PLATFORM_AHT20_STANDARD_IIC_READ_RE_START?PLATFORM
000A45H   000AD0H   00008CH   BYTE   UNIT     CODE           ?C_C51STARTUP
000AD1H   000B52H   000082H   BYTE   UNIT     CODE           ?PR?MAIN?MAIN
000B53H   000BB4H   000062H   BYTE   UNIT     CODE           ?PR?PLATFORM_AHT20_STANDARD_IIC_READ_TASK?PLATFORM
000BB5H   000C04H   000050H   BYTE   UNIT     CODE           ?PR?_?DRIVE_AHT20_STANDARD_IIC_READ_ADDRESS_CHANGE?AHT20
000C05H   000C4CH   000048H   BYTE   UNIT     CODE           ?C_INITSEG
000C4DH   000C8EH   000042H   BYTE   UNIT     CODE           ?C?LIB_CODE
000C8FH   000CCBH   00003DH   BYTE   UNIT     CODE           ?PR?_APPLICATION_AHT20_STANDARD_IIC_READ_ADDRESS?AHT20
000CCCH   000D06H   00003BH   BYTE   UNIT     CODE           ?PR?TIMER0_ISR?PLATFORM
000D07H   000D41H   00003BH   BYTE   UNIT     CODE           ?PR?PLATFORM_AHT20_STANDARD_IIC_READ_WAIT?PLATFORM
000D42H   000D6DH   00002CH   BYTE   UNIT     CODE           ?PR?UART_ISR?UART
000D6EH   000D94H   000027H   BYTE   UNIT     CODE           ?PR?_PLATFORM_UART_SEND_STR?PLATFORM
000D95H   000DBAH   000026H   BYTE   UNIT     CODE           ?PR?_PLATFORM_AHT20_STANDARD_IIC_READ_ADDRESS?PLATFORM
000DBBH   000DDBH   000021H   BYTE   UNIT     CODE           ?PR?_GPIO_SET?PLATFORM
000DDCH   000DF6H   00001BH   BYTE   UNIT     CODE           ?PR?_GPIO_GET?PLATFORM
000DF7H   000E06H   000010H   BYTE   UNIT     CODE           ?PR?TIMER0_SYSTICK_INIT?PLATFORM
000E07H   000E16H   000010H   BYTE   UNIT     CODE           ?PR?TIME_GET_US?PLATFORM
000E17H   000E1FH   000009H   BYTE   UNIT     CODE           ?PR?_UART_SEND_STR?UART
000E20H   000E26H   000007H   BYTE   UNIT     CODE           ?PR?UART_INIT?UART
000E27H   000E2CH   000006H   BYTE   UNIT     CODE           ?PR?PLATFORM_AHT20_STANDARD_IIC_READ_COMPLETE_FLAG_CLEAR?P
                                                             -LATFORM
000E2DH   000E2FH   000003H   BYTE   UNIT     CODE           ?PR?DRIVE_AHT20_STANDARD_IIC_READ_TASK_CHANGE?AHT20
000E30H   000E32H   000003H   BYTE   UNIT     CODE           ?PR?PLATFORM_AHT20_STANDARD_IIC_READ_COMPLETE_FLAG?PLATFOR
                                                             -M
000E33H   000E35H   000003H   BYTE   UNIT     CODE           ?PR?_UART_SEND_STR_CHANGE?UART
000E36H   000E38H   000003H   BYTE   UNIT     CODE           ?PR?UART_INIT_CHANGE?UART

* * * * * * * * *   R E M O V E D     S E G M E N T S   * * * * * * * *
   *DEL*:           000020H   BYTE   UNIT     CODE           ?PR?_DELAY_MS?PLATFORM
   *DEL*:           000017H   BYTE   UNIT     CODE           ?PR?UART_RECEIVE?UART
   *DEL*:           00000FH   BYTE   UNIT     CODE           ?PR?UART_CLEAR?UART



OVERLAY MAP OF MODULE:   .\build\Target 1\AHT20_Measure (AHT20)


FUNCTION/MODULE                                BIT_GROUP   DATA_GROUP 
--> CALLED FUNCTION/MODULE                    START  STOP  START  STOP
======================================================================
TIMER0_ISR/PLATFORM                           ----- -----  ----- -----

*** NEW ROOT ********************************

?C_C51STARTUP                                 ----- -----  ----- -----
  +--> MAIN/MAIN
LX51 LINKER/LOCATER V4.66.100.0                                                       05/26/2026  10:51:57  PAGE 3


  +--> ?C_INITSEG

MAIN/MAIN                                     ----- -----  ----- -----
  +--> UART_INIT/UART
  +--> TIMER0_SYSTICK_INIT/PLATFORM
  +--> _APPLICATION_AHT20_STANDARD_IIC_READ_ADDRESS/AHT20
  +--> APPLICATION_AHT20_STANDARD_IIC_READ_TASK/AHT20
  +--> PLATFORM_AHT20_STANDARD_IIC_READ_COMPLETE_FLAG/PLATFORM
  +--> _UART_SEND_STR/UART
  +--> PLATFORM_AHT20_STANDARD_IIC_READ_COMPLETE_FLAG_CLEAR/PLATFORM
  +--> TIME_GET_US/PLATFORM

UART_INIT/UART                                ----- -----  ----- -----

TIMER0_SYSTICK_INIT/PLATFORM                  ----- -----  ----- -----

_APPLICATION_AHT20_STANDARD_IIC_READ_ADD+     ----- -----  0048H 0050H
... RESS/AHT20

APPLICATION_AHT20_STANDARD_IIC_READ_TASK+     ----- -----  ----- -----
... /AHT20

PLATFORM_AHT20_STANDARD_IIC_READ_COMPLET+     ----- -----  ----- -----
... E_FLAG/PLATFORM

_UART_SEND_STR/UART                           ----- -----  ----- -----

PLATFORM_AHT20_STANDARD_IIC_READ_COMPLET+     ----- -----  ----- -----
... E_FLAG_CLEAR/PLATFORM

TIME_GET_US/PLATFORM                          ----- -----  ----- -----
  +--> _GPIO_SET/PLATFORM

_GPIO_SET/PLATFORM                            ----- -----  ----- -----

?C_INITSEG                                    ----- -----  ----- -----
  +--> _?DRIVE_AHT20_STANDARD_IIC_READ_ADDRESS_CHANGE/AHT20
  +--> DRIVE_AHT20_STANDARD_IIC_READ_TASK_CHANGE/AHT20
  +--> UART_INIT_CHANGE/UART
  +--> _UART_SEND_STR_CHANGE/UART

_?DRIVE_AHT20_STANDARD_IIC_READ_ADDRESS_+     ----- -----  ----- -----
... CHANGE/AHT20
  +--> _PLATFORM_AHT20_STANDARD_IIC_READ_ADDRESS/PLATFORM

_PLATFORM_AHT20_STANDARD_IIC_READ_ADDRES+     ----- -----  0048H 0050H
... S/PLATFORM

DRIVE_AHT20_STANDARD_IIC_READ_TASK_CHANG+     ----- -----  ----- -----
... E/AHT20
  +--> PLATFORM_AHT20_STANDARD_IIC_READ_TASK/PLATFORM

PLATFORM_AHT20_STANDARD_IIC_READ_TASK/PL+     ----- -----  ----- -----
... ATFORM
  +--> PLATFORM_AHT20_STANDARD_IIC_READ_START/PLATFORM
  +--> PLATFORM_AHT20_STANDARD_IIC_READ_DEVIDCE_AND_WORD_ADDRESS/PLATFORM
  +--> PLATFORM_AHT20_STANDARD_IIC_READ_RECEIVE_ACK/PLATFORM
  +--> PLATFORM_AHT20_STANDARD_IIC_READ_STOP/PLATFORM
  +--> PLATFORM_AHT20_STANDARD_IIC_READ_WAIT/PLATFORM
  +--> PLATFORM_AHT20_STANDARD_IIC_READ_RE_START/PLATFORM
  +--> PLATFORM_AHT20_STANDARD_IIC_READ_RE_SEND_ADDRESS/PLATFORM
  +--> PLATFORM_AHT20_STANDARD_IIC_READ_RE_RECEIVE_ACK/PLATFORM
  +--> PLATFORM_AHT20_STANDARD_IIC_READ_RECEIVE_DATA/PLATFORM
  +--> PLATFORM_AHT20_STANDARD_IIC_READ_SEND_ACK/PLATFORM
  +--> PLATFORM_AHT20_STANDARD_IIC_READ_SEND_NACK/PLATFORM
LX51 LINKER/LOCATER V4.66.100.0                                                       05/26/2026  10:51:57  PAGE 4


  +--> PLATFORM_AHT20_STANDARD_IIC_READ_RE_STOP/PLATFORM

PLATFORM_AHT20_STANDARD_IIC_READ_START/P+     ----- -----  ----- -----
... LATFORM
  +--> TIME_GET_US/PLATFORM
  +--> _GPIO_SET/PLATFORM

PLATFORM_AHT20_STANDARD_IIC_READ_DEVIDCE+     ----- -----  ----- -----
... _AND_WORD_ADDRESS/PLATFORM
  +--> TIME_GET_US/PLATFORM
  +--> _GPIO_SET/PLATFORM

PLATFORM_AHT20_STANDARD_IIC_READ_RECEIVE+     ----- -----  ----- -----
... _ACK/PLATFORM
  +--> TIME_GET_US/PLATFORM
  +--> _GPIO_SET/PLATFORM
  +--> _GPIO_GET/PLATFORM

_GPIO_GET/PLATFORM                            ----- -----  ----- -----

PLATFORM_AHT20_STANDARD_IIC_READ_STOP/PL+     ----- -----  ----- -----
... ATFORM
  +--> TIME_GET_US/PLATFORM
  +--> _GPIO_SET/PLATFORM

PLATFORM_AHT20_STANDARD_IIC_READ_WAIT/PL+     ----- -----  ----- -----
... ATFORM
  +--> TIME_GET_US/PLATFORM

PLATFORM_AHT20_STANDARD_IIC_READ_RE_STAR+     ----- -----  ----- -----
... T/PLATFORM
  +--> TIME_GET_US/PLATFORM
  +--> _GPIO_SET/PLATFORM

PLATFORM_AHT20_STANDARD_IIC_READ_RE_SEND+     ----- -----  ----- -----
... _ADDRESS/PLATFORM
  +--> TIME_GET_US/PLATFORM
  +--> _GPIO_SET/PLATFORM

PLATFORM_AHT20_STANDARD_IIC_READ_RE_RECE+     ----- -----  ----- -----
... IVE_ACK/PLATFORM
  +--> TIME_GET_US/PLATFORM
  +--> _GPIO_SET/PLATFORM
  +--> _GPIO_GET/PLATFORM

PLATFORM_AHT20_STANDARD_IIC_READ_RECEIVE+     ----- -----  ----- -----
... _DATA/PLATFORM
  +--> TIME_GET_US/PLATFORM
  +--> _GPIO_SET/PLATFORM
  +--> _GPIO_GET/PLATFORM

PLATFORM_AHT20_STANDARD_IIC_READ_SEND_AC+     ----- -----  ----- -----
... K/PLATFORM
  +--> TIME_GET_US/PLATFORM
  +--> _GPIO_SET/PLATFORM

PLATFORM_AHT20_STANDARD_IIC_READ_SEND_NA+     ----- -----  ----- -----
... CK/PLATFORM
  +--> TIME_GET_US/PLATFORM
  +--> _GPIO_SET/PLATFORM

PLATFORM_AHT20_STANDARD_IIC_READ_RE_STOP+     ----- -----  ----- -----
... /PLATFORM
  +--> TIME_GET_US/PLATFORM
  +--> _GPIO_SET/PLATFORM
LX51 LINKER/LOCATER V4.66.100.0                                                       05/26/2026  10:51:57  PAGE 5



UART_INIT_CHANGE/UART                         ----- -----  ----- -----
  +--> PLATFORM_UART_INIT/PLATFORM

PLATFORM_UART_INIT/PLATFORM                   ----- -----  ----- -----

_UART_SEND_STR_CHANGE/UART                    ----- -----  ----- -----
  +--> _PLATFORM_UART_SEND_STR/PLATFORM

_PLATFORM_UART_SEND_STR/PLATFORM              ----- -----  0048H 004AH

*** NEW ROOT ********************************

UART_ISR/UART                                 ----- -----  ----- -----



PUBLIC SYMBOLS OF MODULE:  .\build\Target 1\AHT20_Measure (AHT20)


      VALUE       CLASS    TYPE      PUBLIC SYMBOL NAME
      =================================================
      00000048H   DATA     BYTE      ?_APPLICATION_Aht20_Standard_IIC_Read_Address?BYTE
      00000048H   DATA     BYTE      ?_Platform_Aht20_Standard_IIC_Read_Address?BYTE
      01000C4DH   CODE     ---       ?C?CLDPTR
      00000000H   NUMBER   ---       ?C?CODESEG
      01000C66H   CODE     ---       ?C?CSTPTR
      01000C89H   CODE     ---       ?C?ICALL
      01000C8DH   CODE     ---       ?C?ICALL2
      01000C78H   CODE     ---       ?C?ULCMP
      00000000H   NUMBER   ---       ?C?XDATASEG
      0000001EH   DATA     ---       ?C_IBP
      01000A8CH   CODE     ---       ?C_START
      01000000H   CODE     ---       ?C_STARTUP
      01000BB5H   CODE     ---       _?DRIVE_Aht20_Standard_IIC_Read_Address_Change
      01000C8FH   CODE     ---       _APPLICATION_Aht20_Standard_IIC_Read_Address
*DEL*:00000000H   CODE     ---       _delay_ms
      01000DDCH   CODE     ---       _GPIO_Get
      01000DBFH   CODE     ---       _GPIO_Set
      01000D95H   CODE     ---       _Platform_Aht20_Standard_IIC_Read_Address
      01000D6EH   CODE     ---       _Platform_UART_Send_Str
      01000E17H   CODE     ---       _UART_Send_Str
      00000008H   DATA     ---       adress
      00000018H   DATA     ---       Aht20
      01000003H   CODE     ---       APPLICATION_Aht20_Standard_IIC_Read_Task
      0000000CH   DATA     ---       dat
      01000E2DH   CODE     ---       DRIVE_Aht20_Standard_IIC_Read_Task_Change
      00000014H   DATA     DWORD     last_time
      01000AD1H   CODE     ---       main
      00000035H   DATA     DWORD     now
      01000E30H   CODE     ---       Platform_Aht20_Standard_IIC_Read_Complete_Flag
      01000E27H   CODE     ---       Platform_Aht20_Standard_IIC_Read_Complete_Flag_Clear
      01000026H   CODE     ---       Platform_Aht20_Standard_IIC_Read_Devidce_And_Word_Address
      01000580H   CODE     ---       Platform_Aht20_Standard_IIC_Read_Re_Receive_Ack
      01000144H   CODE     ---       Platform_Aht20_Standard_IIC_Read_Re_Send_Address
      0100099DH   CODE     ---       Platform_Aht20_Standard_IIC_Read_Re_Start
      01000669H   CODE     ---       Platform_Aht20_Standard_IIC_Read_Re_Stop
      01000373H   CODE     ---       Platform_Aht20_Standard_IIC_Read_Receive_Ack
      0100047EH   CODE     ---       Platform_Aht20_Standard_IIC_Read_Receive_Data
      01000262H   CODE     ---       Platform_Aht20_Standard_IIC_Read_Send_Ack
      01000820H   CODE     ---       Platform_Aht20_Standard_IIC_Read_Send_Nack
      010008F5H   CODE     ---       Platform_Aht20_Standard_IIC_Read_Start
      01000748H   CODE     ---       Platform_Aht20_Standard_IIC_Read_Stop
      01000B53H   CODE     ---       Platform_Aht20_Standard_IIC_Read_Task
      01000D07H   CODE     ---       Platform_Aht20_Standard_IIC_Read_Wait
LX51 LINKER/LOCATER V4.66.100.0                                                       05/26/2026  10:51:57  PAGE 6


      0100000EH   CODE     ---       Platform_UART_Init
      00000013H   DATA     ---       re_adress
      00000039H   DATA     DWORD     System_Tick
      01000E0EH   CODE     ---       time_get_us
      01000CCCH   CODE     ---       Timer0_ISR
      01000DF7H   CODE     ---       Timer0_SysTick_Init
      00000041H   DATA     ---       Uart
*DEL*:00000000H   CODE     ---       UART_Clear
      01000E20H   CODE     ---       UART_Init
      01000D42H   CODE     ---       UART_Isr
*DEL*:00000000H   CODE     ---       UART_Receive



SYMBOL TABLE OF MODULE:  .\build\Target 1\AHT20_Measure (AHT20)

      VALUE       REP       CLASS    TYPE      SYMBOL NAME
      ====================================================
      ---         MODULE    ---      ---       AHT20
      00000018H   PUBLIC    DATA     ---       Aht20
      01000003H   PUBLIC    CODE     ---       APPLICATION_Aht20_Standard_IIC_Read_Task
      00000048H   PUBLIC    DATA     BYTE      ?_APPLICATION_Aht20_Standard_IIC_Read_Address?BYTE
      01000C8FH   PUBLIC    CODE     ---       _APPLICATION_Aht20_Standard_IIC_Read_Address
      01000E2DH   PUBLIC    CODE     ---       DRIVE_Aht20_Standard_IIC_Read_Task_Change
      01000BB5H   PUBLIC    CODE     ---       _?DRIVE_Aht20_Standard_IIC_Read_Address_Change

      01000BB5H   BLOCK     CODE     ---       LVL=0
      ---         BLOCKEND  ---      ---       LVL=0

      01000E2DH   BLOCK     CODE     ---       LVL=0
      ---         BLOCKEND  ---      ---       LVL=0

      01000C8FH   BLOCK     CODE     ---       LVL=0
      ---         BLOCKEND  ---      ---       LVL=0

      01000003H   BLOCK     CODE     ---       LVL=0
      ---         BLOCKEND  ---      ---       LVL=0

      ---         MODULE    ---      ---       PLATFORM
      00000039H   PUBLIC    DATA     DWORD     System_Tick
      00000035H   PUBLIC    DATA     DWORD     now
      01000E27H   PUBLIC    CODE     ---       Platform_Aht20_Standard_IIC_Read_Complete_Flag_Clear
      01000E30H   PUBLIC    CODE     ---       Platform_Aht20_Standard_IIC_Read_Complete_Flag
      01000B53H   PUBLIC    CODE     ---       Platform_Aht20_Standard_IIC_Read_Task
      01000669H   PUBLIC    CODE     ---       Platform_Aht20_Standard_IIC_Read_Re_Stop
      01000820H   PUBLIC    CODE     ---       Platform_Aht20_Standard_IIC_Read_Send_Nack
      01000262H   PUBLIC    CODE     ---       Platform_Aht20_Standard_IIC_Read_Send_Ack
      0100047EH   PUBLIC    CODE     ---       Platform_Aht20_Standard_IIC_Read_Receive_Data
      01000580H   PUBLIC    CODE     ---       Platform_Aht20_Standard_IIC_Read_Re_Receive_Ack
      01000144H   PUBLIC    CODE     ---       Platform_Aht20_Standard_IIC_Read_Re_Send_Address
      0100099DH   PUBLIC    CODE     ---       Platform_Aht20_Standard_IIC_Read_Re_Start
      01000D07H   PUBLIC    CODE     ---       Platform_Aht20_Standard_IIC_Read_Wait
      01000748H   PUBLIC    CODE     ---       Platform_Aht20_Standard_IIC_Read_Stop
      01000373H   PUBLIC    CODE     ---       Platform_Aht20_Standard_IIC_Read_Receive_Ack
      01000026H   PUBLIC    CODE     ---       Platform_Aht20_Standard_IIC_Read_Devidce_And_Word_Address
      010008F5H   PUBLIC    CODE     ---       Platform_Aht20_Standard_IIC_Read_Start
      00000048H   PUBLIC    DATA     BYTE      ?_Platform_Aht20_Standard_IIC_Read_Address?BYTE
      01000D95H   PUBLIC    CODE     ---       _Platform_Aht20_Standard_IIC_Read_Address
      01000D6EH   PUBLIC    CODE     ---       _Platform_UART_Send_Str
      0100000EH   PUBLIC    CODE     ---       Platform_UART_Init
      01000E0EH   PUBLIC    CODE     ---       time_get_us
      01000CCCH   PUBLIC    CODE     ---       Timer0_ISR
      01000DF7H   PUBLIC    CODE     ---       Timer0_SysTick_Init
      01000DDCH   PUBLIC    CODE     ---       _GPIO_Get
      01000DBFH   PUBLIC    CODE     ---       _GPIO_Set
LX51 LINKER/LOCATER V4.66.100.0                                                       05/26/2026  10:51:57  PAGE 7



      01000DBBH   BLOCK     CODE     ---       LVL=0
      ---         BLOCKEND  ---      ---       LVL=0

      01000DBFH   BLOCK     CODE     ---       LVL=0
      ---         BLOCKEND  ---      ---       LVL=0

      01000DDCH   BLOCK     CODE     ---       LVL=0
      ---         BLOCKEND  ---      ---       LVL=0

      01000DF7H   BLOCK     CODE     ---       LVL=0
      ---         BLOCKEND  ---      ---       LVL=0

      01000CCCH   BLOCK     CODE     ---       LVL=0
      ---         BLOCKEND  ---      ---       LVL=0

      01000E07H   BLOCK     CODE     ---       LVL=0
      ---         BLOCKEND  ---      ---       LVL=0

      01000E0EH   BLOCK     CODE     ---       LVL=0
      ---         BLOCKEND  ---      ---       LVL=0
      00000004H   SYMBOL    DATA     VOID      i
      00000002H   SYMBOL    DATA     VOID      j

      0100000EH   BLOCK     CODE     ---       LVL=0
      ---         BLOCKEND  ---      ---       LVL=0

      01000D6EH   BLOCK     CODE     ---       LVL=0
      ---         BLOCKEND  ---      ---       LVL=0

      01000D95H   BLOCK     CODE     ---       LVL=0
      ---         BLOCKEND  ---      ---       LVL=0

      010008F5H   BLOCK     CODE     ---       LVL=0
      ---         BLOCKEND  ---      ---       LVL=0

      01000026H   BLOCK     CODE     ---       LVL=0
      ---         BLOCKEND  ---      ---       LVL=0

      01000373H   BLOCK     CODE     ---       LVL=0
      ---         BLOCKEND  ---      ---       LVL=0

      01000748H   BLOCK     CODE     ---       LVL=0
      ---         BLOCKEND  ---      ---       LVL=0

      01000D07H   BLOCK     CODE     ---       LVL=0
      ---         BLOCKEND  ---      ---       LVL=0

      0100099DH   BLOCK     CODE     ---       LVL=0
      ---         BLOCKEND  ---      ---       LVL=0

      01000144H   BLOCK     CODE     ---       LVL=0
      ---         BLOCKEND  ---      ---       LVL=0

      01000580H   BLOCK     CODE     ---       LVL=0
      ---         BLOCKEND  ---      ---       LVL=0

      0100047EH   BLOCK     CODE     ---       LVL=0
      ---         BLOCKEND  ---      ---       LVL=0

      01000262H   BLOCK     CODE     ---       LVL=0
      ---         BLOCKEND  ---      ---       LVL=0

      01000820H   BLOCK     CODE     ---       LVL=0
      ---         BLOCKEND  ---      ---       LVL=0
LX51 LINKER/LOCATER V4.66.100.0                                                       05/26/2026  10:51:57  PAGE 8



      01000669H   BLOCK     CODE     ---       LVL=0
      ---         BLOCKEND  ---      ---       LVL=0

      01000B53H   BLOCK     CODE     ---       LVL=0
      ---         BLOCKEND  ---      ---       LVL=0

      01000E30H   BLOCK     CODE     ---       LVL=0
      ---         BLOCKEND  ---      ---       LVL=0

      01000E27H   BLOCK     CODE     ---       LVL=0
      ---         BLOCKEND  ---      ---       LVL=0

      ---         MODULE    ---      ---       ?C_STARTUP
      01000000H   PUBLIC    CODE     ---       ?C_STARTUP

      ---         MODULE    ---      ---       UART
      00000041H   PUBLIC    DATA     ---       Uart
      01000D42H   PUBLIC    CODE     ---       UART_Isr
      01000E17H   PUBLIC    CODE     ---       _UART_Send_Str
      01000E20H   PUBLIC    CODE     ---       UART_Init

      01000E33H   BLOCK     CODE     ---       LVL=0
      ---         BLOCKEND  ---      ---       LVL=0

      01000E36H   BLOCK     CODE     ---       LVL=0
      ---         BLOCKEND  ---      ---       LVL=0

      01000E20H   BLOCK     CODE     ---       LVL=0
      ---         BLOCKEND  ---      ---       LVL=0

      01000E17H   BLOCK     CODE     ---       LVL=0
      ---         BLOCKEND  ---      ---       LVL=0

      01000D42H   BLOCK     CODE     ---       LVL=0
      ---         BLOCKEND  ---      ---       LVL=0
      00000007H   SYMBOL    DATA     VOID      i

      ---         MODULE    ---      ---       MAIN
      00000014H   PUBLIC    DATA     DWORD     last_time
      00000013H   PUBLIC    DATA     ---       re_adress
      0000000CH   PUBLIC    DATA     ---       dat
      00000008H   PUBLIC    DATA     ---       adress
      01000AD1H   PUBLIC    CODE     ---       main

      01000AD1H   BLOCK     CODE     ---       LVL=0
      ---         BLOCKEND  ---      ---       LVL=0

      ---         MODULE    ---      ---       ?C_INIT
      01000A8CH   PUBLIC    CODE     ---       ?C_START

      ---         MODULE    ---      ---       ?C?CLDPTR
      01000C4DH   PUBLIC    CODE     ---       ?C?CLDPTR

      ---         MODULE    ---      ---       ?C?CSTPTR
      01000C66H   PUBLIC    CODE     ---       ?C?CSTPTR

      ---         MODULE    ---      ---       ?C?ULCMP
      01000C78H   PUBLIC    CODE     ---       ?C?ULCMP

      ---         MODULE    ---      ---       ?C?ICALL
      01000C89H   PUBLIC    CODE     ---       ?C?ICALL
      01000C8DH   PUBLIC    CODE     ---       ?C?ICALL2

      ---         MODULE    ---      ---       ?C_IBP
LX51 LINKER/LOCATER V4.66.100.0                                                       05/26/2026  10:51:57  PAGE 9


      0000001EH   PUBLIC    DATA     ---       ?C_IBP

Program Size: data=80.1 xdata=0 const=0 code=3638
LX51 RUN COMPLETE.  0 WARNING(S),  0 ERROR(S)
